TI ARM Assembler Unix v20.2.5 Sun Mar 27 17:11:53 2022

Copyright (c) 1996-2018 Texas Instruments Incorporated
slwificonn.asm                                                       PAGE    1

       1                    ;******************************************************************************
       2                    ;* TI ARM G3 C/C++ Codegen                                          Unix v20.2.5.LTS *
       3                    ;* Date/Time created: Sun Mar 27 17:11:52 2022                                *
       4                    ;******************************************************************************
       5                            .compiler_opts --abi=eabi --arm_vmrs_si_workaround=off --code_state=16 --embedded_constants=on
       6 00000000                   .thumb
       7                    
       8                    $C$DW$CU        .dwtag  DW_TAG_compile_unit
       9                            .dwattr $C$DW$CU, DW_AT_name("/vagrant/2022_Q1_14_2_22/sdk_root/source/ti/drivers/net/wifi/sln
      10                            .dwattr $C$DW$CU, DW_AT_producer("TI TI ARM G3 C/C++ Codegen Unix v20.2.5.LTS Copyright (c) 19
      11                            .dwattr $C$DW$CU, DW_AT_TI_version(0x01)
      12                            .dwattr $C$DW$CU, DW_AT_comp_dir("/vagrant/2022_Q1_14_2_22/sdk_root/source/ti/drivers/net/wifi
      13                            .global g_fNetIfCB
      14 00000000                   .data
      15                            .align  4
      16                            .elfsym g_fNetIfCB,SYM_SIZE(4)
      17 00000000           g_fNetIfCB:
      18 00000000 00000000          .bits           0,32
      19                                            ; g_fNetIfCB @ 0
      20                    
      21                    $C$DW$1 .dwtag  DW_TAG_variable
      22                            .dwattr $C$DW$1, DW_AT_name("g_fNetIfCB")
      23                            .dwattr $C$DW$1, DW_AT_TI_symbol_name("g_fNetIfCB")
      24                            .dwattr $C$DW$1, DW_AT_location[DW_OP_addr g_fNetIfCB]
      25                            .dwattr $C$DW$1, DW_AT_type(*$C$DW$T$495)
      26                            .dwattr $C$DW$1, DW_AT_external
      27                            .dwattr $C$DW$1, DW_AT_decl_file("/vagrant/2022_Q1_14_2_22/sdk_root/source/ti/drivers/net/wifi
      28                            .dwattr $C$DW$1, DW_AT_decl_line(0xca)
      29                            .dwattr $C$DW$1, DW_AT_decl_column(0x19)
      30                    
      31                            .global g_ifId
      32 00000004                   .data
      33                            .align  2
      34                            .elfsym g_ifId,SYM_SIZE(2)
      35 00000004           g_ifId:
      36 00000004 00000000          .bits           0,16
      37                                            ; g_ifId @ 0
      38                    
      39                    $C$DW$2 .dwtag  DW_TAG_variable
      40                            .dwattr $C$DW$2, DW_AT_name("g_ifId")
      41                            .dwattr $C$DW$2, DW_AT_TI_symbol_name("g_ifId")
      42                            .dwattr $C$DW$2, DW_AT_location[DW_OP_addr g_ifId]
      43                            .dwattr $C$DW$2, DW_AT_type(*$C$DW$T$67)
      44                            .dwattr $C$DW$2, DW_AT_external
      45                            .dwattr $C$DW$2, DW_AT_decl_file("/vagrant/2022_Q1_14_2_22/sdk_root/source/ti/drivers/net/wifi
      46                            .dwattr $C$DW$2, DW_AT_decl_line(0xcb)
      47                            .dwattr $C$DW$2, DW_AT_decl_column(0x19)
      48                    
      49                            .global g_csLock
      50                            .common g_csLock,28,4
      51                    $C$DW$3 .dwtag  DW_TAG_variable
      52                            .dwattr $C$DW$3, DW_AT_name("g_csLock")
      53                            .dwattr $C$DW$3, DW_AT_TI_symbol_name("g_csLock")
      54                            .dwattr $C$DW$3, DW_AT_location[DW_OP_addr g_csLock]
      55                            .dwattr $C$DW$3, DW_AT_type(*$C$DW$T$792)
TI ARM Assembler Unix v20.2.5 Sun Mar 27 17:11:53 2022

Copyright (c) 1996-2018 Texas Instruments Incorporated
slwificonn.asm                                                       PAGE    2

      56                            .dwattr $C$DW$3, DW_AT_external
      57                            .dwattr $C$DW$3, DW_AT_decl_file("/vagrant/2022_Q1_14_2_22/sdk_root/source/ti/drivers/net/wifi
      58                            .dwattr $C$DW$3, DW_AT_decl_line(0xce)
      59                            .dwattr $C$DW$3, DW_AT_decl_column(0x19)
      60                    
      61 00000006                   .data
      62                            .align  4
      63                            .elfsym g_ctx,SYM_SIZE(4)
      64 00000008           g_ctx:
      65 00000008 00000000          .bits           0,32
      66                                            ; g_ctx @ 0
      67                    
      68                    $C$DW$4 .dwtag  DW_TAG_variable
      69                            .dwattr $C$DW$4, DW_AT_name("g_ctx")
      70                            .dwattr $C$DW$4, DW_AT_TI_symbol_name("g_ctx")
      71                            .dwattr $C$DW$4, DW_AT_type(*$C$DW$T$690)
      72                            .dwattr $C$DW$4, DW_AT_location[DW_OP_addr g_ctx]
      73                            .dwattr $C$DW$4, DW_AT_decl_file("/vagrant/2022_Q1_14_2_22/sdk_root/source/ti/drivers/net/wifi
      74                            .dwattr $C$DW$4, DW_AT_decl_line(0x103)
      75                            .dwattr $C$DW$4, DW_AT_decl_column(0x16)
      76                    
      77 00000000                   .sect   ".data:g_settings", RW
      78                            .align  4
      79                            .elfsym g_settings,SYM_SIZE(28)
      80 00000000           g_settings:
      81 00000000 00000003          .bits           0x3,16
      82                                            ; g_settings.connectTimeout @ 0
      83 00000000 00060003          .bits           0x6,16
      84                                            ; g_settings.ipTimeout @ 16
      85 00000004 0000003C          .bits           0x3c,16
      86                                            ; g_settings.reconnectTimeout @ 32
      87 00000004 012C003C          .bits           0x12c,16
      88                                            ; g_settings.provisioningTimeout @ 48
      89 00000008 00000014          .bits           0x14,16
      90                                            ; g_settings.idleMinInterval @ 64
      91 00000008 00780014          .bits           0x78,16
      92                                            ; g_settings.idleMaxInterval @ 80
      93 0000000c 00000000          .bits           0,32
      94                                            ; g_settings.provisioningAP_ssid @ 96
      95 00000010 00000000          .bits           0,8
      96                                            ; g_settings.provisioningAP_secType @ 128
      97 00000010 00000000          .bits           0,24
      98                    
      99 00000014 00000000          .bits           0,32
     100                                            ; g_settings.provisioningAP_password @ 160
     101 00000018 00000000          .bits           0,32
     102                                            ; g_settings.provisioningSC_key @ 192
     103                    
     104                    $C$DW$5 .dwtag  DW_TAG_variable
     105                            .dwattr $C$DW$5, DW_AT_name("g_settings")
     106                            .dwattr $C$DW$5, DW_AT_TI_symbol_name("g_settings")
     107                            .dwattr $C$DW$5, DW_AT_type(*$C$DW$T$687)
     108                            .dwattr $C$DW$5, DW_AT_location[DW_OP_addr g_settings]
     109                            .dwattr $C$DW$5, DW_AT_decl_file("/vagrant/2022_Q1_14_2_22/sdk_root/source/ti/drivers/net/wifi
     110                            .dwattr $C$DW$5, DW_AT_decl_line(0x106)
TI ARM Assembler Unix v20.2.5 Sun Mar 27 17:11:53 2022

Copyright (c) 1996-2018 Texas Instruments Incorporated
slwificonn.asm                                                       PAGE    3

     111                            .dwattr $C$DW$5, DW_AT_decl_column(0x1b)
     112                    
     113 00000000                   .sect   ".data:g_fWifiSM", RW
     114                            .align  4
     115                            .elfsym g_fWifiSM,SYM_SIZE(32)
     116 00000000           g_fWifiSM:
     117 00000000 00000000          .bits           0,32
     118                                            ; g_fWifiSM[0] @ 0
     119 00000004                   .space  28
     120                    
     121                    $C$DW$6 .dwtag  DW_TAG_variable
     122                            .dwattr $C$DW$6, DW_AT_name("g_fWifiSM")
     123                            .dwattr $C$DW$6, DW_AT_TI_symbol_name("g_fWifiSM")
     124                            .dwattr $C$DW$6, DW_AT_type(*$C$DW$T$979)
     125                            .dwattr $C$DW$6, DW_AT_location[DW_OP_addr g_fWifiSM]
     126                            .dwattr $C$DW$6, DW_AT_decl_file("/vagrant/2022_Q1_14_2_22/sdk_root/source/ti/drivers/net/wifi
     127                            .dwattr $C$DW$6, DW_AT_decl_line(0x10e)
     128                            .dwattr $C$DW$6, DW_AT_decl_column(0x14)
     129                    
     130 0000000c                   .data
     131                            .align  4
     132                            .elfsym g_fEnterPROVISIONING,SYM_SIZE(4)
     133 0000000c           g_fEnterPROVISIONING:
     134 0000000c 00000000          .bits           0,32
     135                                            ; g_fEnterPROVISIONING @ 0
     136                    
     137                    $C$DW$7 .dwtag  DW_TAG_variable
     138                            .dwattr $C$DW$7, DW_AT_name("g_fEnterPROVISIONING")
     139                            .dwattr $C$DW$7, DW_AT_TI_symbol_name("g_fEnterPROVISIONING")
     140                            .dwattr $C$DW$7, DW_AT_type(*$C$DW$T$973)
     141                            .dwattr $C$DW$7, DW_AT_location[DW_OP_addr g_fEnterPROVISIONING]
     142                            .dwattr $C$DW$7, DW_AT_decl_file("/vagrant/2022_Q1_14_2_22/sdk_root/source/ti/drivers/net/wifi
     143                            .dwattr $C$DW$7, DW_AT_decl_line(0x111)
     144                            .dwattr $C$DW$7, DW_AT_decl_column(0x0e)
     145                    
     146 00000010                   .data
     147                            .align  4
     148                            .elfsym g_fProvStatusHandler,SYM_SIZE(4)
     149 00000010           g_fProvStatusHandler:
     150 00000010 00000000          .bits           0,32
     151                                            ; g_fProvStatusHandler @ 0
     152                    
     153                    $C$DW$8 .dwtag  DW_TAG_variable
     154                            .dwattr $C$DW$8, DW_AT_name("g_fProvStatusHandler")
     155                            .dwattr $C$DW$8, DW_AT_TI_symbol_name("g_fProvStatusHandler")
     156                            .dwattr $C$DW$8, DW_AT_type(*$C$DW$T$858)
     157                            .dwattr $C$DW$8, DW_AT_location[DW_OP_addr g_fProvStatusHandler]
     158                            .dwattr $C$DW$8, DW_AT_decl_file("/vagrant/2022_Q1_14_2_22/sdk_root/source/ti/drivers/net/wifi
     159                            .dwattr $C$DW$8, DW_AT_decl_line(0x112)
     160                            .dwattr $C$DW$8, DW_AT_decl_column(0x0f)
     161                    
     162 00000014                   .data
     163                            .align  4
     164                            .elfsym g_fDebugPrint,SYM_SIZE(4)
     165 00000014           g_fDebugPrint:
TI ARM Assembler Unix v20.2.5 Sun Mar 27 17:11:53 2022

Copyright (c) 1996-2018 Texas Instruments Incorporated
slwificonn.asm                                                       PAGE    4

     166 00000014 00000000!         .bits   DummyPrintf,32          ; g_fDebugPrint @ 0
     167                    
     168                    $C$DW$9 .dwtag  DW_TAG_variable
     169                            .dwattr $C$DW$9, DW_AT_name("g_fDebugPrint")
     170                            .dwattr $C$DW$9, DW_AT_TI_symbol_name("g_fDebugPrint")
     171                            .dwattr $C$DW$9, DW_AT_type(*$C$DW$T$850)
     172                            .dwattr $C$DW$9, DW_AT_location[DW_OP_addr g_fDebugPrint]
     173                            .dwattr $C$DW$9, DW_AT_decl_file("/vagrant/2022_Q1_14_2_22/sdk_root/source/ti/drivers/net/wifi
     174                            .dwattr $C$DW$9, DW_AT_decl_line(0x116)
     175                            .dwattr $C$DW$9, DW_AT_decl_column(0x1b)
     176                    
     177 00000000           SlEventHandlers:        .usect  ".bss:SlEventHandlers",24,4
     178                    $C$DW$10        .dwtag  DW_TAG_variable
     179                            .dwattr $C$DW$10, DW_AT_name("SlEventHandlers")
     180                            .dwattr $C$DW$10, DW_AT_TI_symbol_name("SlEventHandlers")
     181                            .dwattr $C$DW$10, DW_AT_type(*$C$DW$T$805)
     182                            .dwattr $C$DW$10, DW_AT_location[DW_OP_addr SlEventHandlers]
     183                            .dwattr $C$DW$10, DW_AT_decl_file("/vagrant/2022_Q1_14_2_22/sdk_root/source/ti/drivers/net/wif
     184                            .dwattr $C$DW$10, DW_AT_decl_line(0x117)
     185                            .dwattr $C$DW$10, DW_AT_decl_column(0x1b)
     186                    
     187 00000000                   .sect   ".data:strState", RW
     188                            .align  4
     189                            .elfsym strState,SYM_SIZE(32)
     190 00000000           strState:
     191 00000000 00000000!         .bits   $C$SL1,32               ; strState[0] @ 0
     192 00000004 00000000!         .bits   $C$SL2,32               ; strState[1] @ 32
     193 00000008 00000000!         .bits   $C$SL3,32               ; strState[2] @ 64
     194 0000000c 00000000!         .bits   $C$SL4,32               ; strState[3] @ 96
     195 00000010 00000000!         .bits   $C$SL5,32               ; strState[4] @ 128
     196 00000014 00000000!         .bits   $C$SL6,32               ; strState[5] @ 160
     197 00000018 00000000!         .bits   $C$SL7,32               ; strState[6] @ 192
     198 0000001c 00000000!         .bits   $C$SL8,32               ; strState[7] @ 224
     199                    
     200                    $C$DW$11        .dwtag  DW_TAG_variable
     201                            .dwattr $C$DW$11, DW_AT_name("strState")
     202                            .dwattr $C$DW$11, DW_AT_TI_symbol_name("strState")
     203                            .dwattr $C$DW$11, DW_AT_type(*$C$DW$T$1146)
     204                            .dwattr $C$DW$11, DW_AT_location[DW_OP_addr strState]
     205                            .dwattr $C$DW$11, DW_AT_decl_file("/vagrant/2022_Q1_14_2_22/sdk_root/source/ti/drivers/net/wif
     206                            .dwattr $C$DW$11, DW_AT_decl_line(0x11a)
     207                            .dwattr $C$DW$11, DW_AT_decl_column(0x14)
     208                    
     209 00000000                   .sect   ".data:strEvent", RW
     210                            .align  4
     211                            .elfsym strEvent,SYM_SIZE(64)
     212 00000000           strEvent:
     213 00000000 00000000!         .bits   $C$SL9,32               ; strEvent[0] @ 0
     214 00000004 00000000!         .bits   $C$SL10,32              ; strEvent[1] @ 32
     215 00000008 00000000!         .bits   $C$SL5,32               ; strEvent[2] @ 64
     216 0000000c 00000000!         .bits   $C$SL11,32              ; strEvent[3] @ 96
     217 00000010 00000000!         .bits   $C$SL12,32              ; strEvent[4] @ 128
     218 00000014 00000000!         .bits   $C$SL13,32              ; strEvent[5] @ 160
     219 00000018 00000000!         .bits   $C$SL14,32              ; strEvent[6] @ 192
     220 0000001c 00000000!         .bits   $C$SL15,32              ; strEvent[7] @ 224
TI ARM Assembler Unix v20.2.5 Sun Mar 27 17:11:53 2022

Copyright (c) 1996-2018 Texas Instruments Incorporated
slwificonn.asm                                                       PAGE    5

     221 00000020 00000000!         .bits   $C$SL16,32              ; strEvent[8] @ 256
     222 00000024 00000000!         .bits   $C$SL17,32              ; strEvent[9] @ 288
     223 00000028 00000000!         .bits   $C$SL18,32              ; strEvent[10] @ 320
     224 0000002c 00000000!         .bits   $C$SL19,32              ; strEvent[11] @ 352
     225 00000030 00000000!         .bits   $C$SL20,32              ; strEvent[12] @ 384
     226 00000034 00000000!         .bits   $C$SL21,32              ; strEvent[13] @ 416
     227 00000038 00000000!         .bits   $C$SL22,32              ; strEvent[14] @ 448
     228 0000003c 00000000!         .bits   $C$SL23,32              ; strEvent[15] @ 480
     229                    
     230                    $C$DW$12        .dwtag  DW_TAG_variable
     231                            .dwattr $C$DW$12, DW_AT_name("strEvent")
     232                            .dwattr $C$DW$12, DW_AT_TI_symbol_name("strEvent")
     233                            .dwattr $C$DW$12, DW_AT_type(*$C$DW$T$1147)
     234                            .dwattr $C$DW$12, DW_AT_location[DW_OP_addr strEvent]
     235                            .dwattr $C$DW$12, DW_AT_decl_file("/vagrant/2022_Q1_14_2_22/sdk_root/source/ti/drivers/net/wif
     236                            .dwattr $C$DW$12, DW_AT_decl_line(0x126)
     237                            .dwattr $C$DW$12, DW_AT_decl_column(0x14)
     238                    
     239                    
     240                    $C$DW$13        .dwtag  DW_TAG_subprogram
     241                            .dwattr $C$DW$13, DW_AT_name("mq_send")
     242                            .dwattr $C$DW$13, DW_AT_TI_symbol_name("mq_send")
     243                            .dwattr $C$DW$13, DW_AT_type(*$C$DW$T$10)
     244                            .dwattr $C$DW$13, DW_AT_declaration
     245                            .dwattr $C$DW$13, DW_AT_external
     246                            .dwattr $C$DW$13, DW_AT_decl_file("/vagrant/2022_Q1_14_2_22/sdk_root/source/ti/posix/ccs/mqueu
     247                            .dwattr $C$DW$13, DW_AT_decl_line(0x5c)
     248                            .dwattr $C$DW$13, DW_AT_decl_column(0x0c)
     249                    $C$DW$14        .dwtag  DW_TAG_formal_parameter
     250                            .dwattr $C$DW$14, DW_AT_type(*$C$DW$T$81)
     251                    
     252                    $C$DW$15        .dwtag  DW_TAG_formal_parameter
     253                            .dwattr $C$DW$15, DW_AT_type(*$C$DW$T$490)
     254                    
     255                    $C$DW$16        .dwtag  DW_TAG_formal_parameter
     256                            .dwattr $C$DW$16, DW_AT_type(*$C$DW$T$281)
     257                    
     258                    $C$DW$17        .dwtag  DW_TAG_formal_parameter
     259                            .dwattr $C$DW$17, DW_AT_type(*$C$DW$T$11)
     260                    
     261                            .dwendtag $C$DW$13
     262                    
     263                    
     264                    $C$DW$18        .dwtag  DW_TAG_subprogram
     265                            .dwattr $C$DW$18, DW_AT_name("mq_getattr")
     266                            .dwattr $C$DW$18, DW_AT_TI_symbol_name("mq_getattr")
     267                            .dwattr $C$DW$18, DW_AT_type(*$C$DW$T$10)
     268                            .dwattr $C$DW$18, DW_AT_declaration
     269                            .dwattr $C$DW$18, DW_AT_external
     270                            .dwattr $C$DW$18, DW_AT_decl_file("/vagrant/2022_Q1_14_2_22/sdk_root/source/ti/posix/ccs/mqueu
     271                            .dwattr $C$DW$18, DW_AT_decl_line(0x58)
     272                            .dwattr $C$DW$18, DW_AT_decl_column(0x0c)
     273                    $C$DW$19        .dwtag  DW_TAG_formal_parameter
     274                            .dwattr $C$DW$19, DW_AT_type(*$C$DW$T$81)
     275                    
TI ARM Assembler Unix v20.2.5 Sun Mar 27 17:11:53 2022

Copyright (c) 1996-2018 Texas Instruments Incorporated
slwificonn.asm                                                       PAGE    6

     276                    $C$DW$20        .dwtag  DW_TAG_formal_parameter
     277                            .dwattr $C$DW$20, DW_AT_type(*$C$DW$T$961)
     278                    
     279                            .dwendtag $C$DW$18
     280                    
     281                    
     282                    $C$DW$21        .dwtag  DW_TAG_subprogram
     283                            .dwattr $C$DW$21, DW_AT_name("mq_receive")
     284                            .dwattr $C$DW$21, DW_AT_TI_symbol_name("mq_receive")
     285                            .dwattr $C$DW$21, DW_AT_type(*$C$DW$T$1032)
     286                            .dwattr $C$DW$21, DW_AT_declaration
     287                            .dwattr $C$DW$21, DW_AT_external
     288                            .dwattr $C$DW$21, DW_AT_decl_file("/vagrant/2022_Q1_14_2_22/sdk_root/source/ti/posix/ccs/mqueu
     289                            .dwattr $C$DW$21, DW_AT_decl_line(0x5a)
     290                            .dwattr $C$DW$21, DW_AT_decl_column(0x10)
     291                    $C$DW$22        .dwtag  DW_TAG_formal_parameter
     292                            .dwattr $C$DW$22, DW_AT_type(*$C$DW$T$81)
     293                    
     294                    $C$DW$23        .dwtag  DW_TAG_formal_parameter
     295                            .dwattr $C$DW$23, DW_AT_type(*$C$DW$T$69)
     296                    
     297                    $C$DW$24        .dwtag  DW_TAG_formal_parameter
     298                            .dwattr $C$DW$24, DW_AT_type(*$C$DW$T$281)
     299                    
     300                    $C$DW$25        .dwtag  DW_TAG_formal_parameter
     301                            .dwattr $C$DW$25, DW_AT_type(*$C$DW$T$1033)
     302                    
     303                            .dwendtag $C$DW$21
     304                    
     305                    
     306                    $C$DW$26        .dwtag  DW_TAG_subprogram
     307                            .dwattr $C$DW$26, DW_AT_name("sl_WlanDisconnect")
     308                            .dwattr $C$DW$26, DW_AT_TI_symbol_name("sl_WlanDisconnect")
     309                            .dwattr $C$DW$26, DW_AT_type(*$C$DW$T$8)
     310                            .dwattr $C$DW$26, DW_AT_declaration
     311                            .dwattr $C$DW$26, DW_AT_external
     312                            .dwattr $C$DW$26, DW_AT_decl_file("/vagrant/2022_Q1_14_2_22/sdk_root/source/ti/drivers/net/wif
     313                            .dwattr $C$DW$26, DW_AT_decl_line(0x51f)
     314                            .dwattr $C$DW$26, DW_AT_decl_column(0x06)
     315                            .dwendtag $C$DW$26
     316                    
     317                    
     318                    $C$DW$27        .dwtag  DW_TAG_subprogram
     319                            .dwattr $C$DW$27, DW_AT_name("sl_WlanConnect")
     320                            .dwattr $C$DW$27, DW_AT_TI_symbol_name("sl_WlanConnect")
     321                            .dwattr $C$DW$27, DW_AT_type(*$C$DW$T$8)
     322                            .dwattr $C$DW$27, DW_AT_declaration
     323                            .dwattr $C$DW$27, DW_AT_external
     324                            .dwattr $C$DW$27, DW_AT_decl_file("/vagrant/2022_Q1_14_2_22/sdk_root/source/ti/drivers/net/wif
     325                            .dwattr $C$DW$27, DW_AT_decl_line(0x510)
     326                            .dwattr $C$DW$27, DW_AT_decl_column(0x06)
     327                    $C$DW$28        .dwtag  DW_TAG_formal_parameter
     328                            .dwattr $C$DW$28, DW_AT_type(*$C$DW$T$878)
     329                    
     330                    $C$DW$29        .dwtag  DW_TAG_formal_parameter
TI ARM Assembler Unix v20.2.5 Sun Mar 27 17:11:53 2022

Copyright (c) 1996-2018 Texas Instruments Incorporated
slwificonn.asm                                                       PAGE    7

     331                            .dwattr $C$DW$29, DW_AT_type(*$C$DW$T$896)
     332                    
     333                    $C$DW$30        .dwtag  DW_TAG_formal_parameter
     334                            .dwattr $C$DW$30, DW_AT_type(*$C$DW$T$886)
     335                    
     336                    $C$DW$31        .dwtag  DW_TAG_formal_parameter
     337                            .dwattr $C$DW$31, DW_AT_type(*$C$DW$T$677)
     338                    
     339                    $C$DW$32        .dwtag  DW_TAG_formal_parameter
     340                            .dwattr $C$DW$32, DW_AT_type(*$C$DW$T$680)
     341                    
     342                            .dwendtag $C$DW$27
     343                    
     344                    
     345                    $C$DW$33        .dwtag  DW_TAG_subprogram
     346                            .dwattr $C$DW$33, DW_AT_name("sl_WlanProfileAdd")
     347                            .dwattr $C$DW$33, DW_AT_TI_symbol_name("sl_WlanProfileAdd")
     348                            .dwattr $C$DW$33, DW_AT_type(*$C$DW$T$8)
     349                            .dwattr $C$DW$33, DW_AT_declaration
     350                            .dwattr $C$DW$33, DW_AT_external
     351                            .dwattr $C$DW$33, DW_AT_decl_file("/vagrant/2022_Q1_14_2_22/sdk_root/source/ti/drivers/net/wif
     352                            .dwattr $C$DW$33, DW_AT_decl_line(0x553)
     353                            .dwattr $C$DW$33, DW_AT_decl_column(0x06)
     354                    $C$DW$34        .dwtag  DW_TAG_formal_parameter
     355                            .dwattr $C$DW$34, DW_AT_type(*$C$DW$T$878)
     356                    
     357                    $C$DW$35        .dwtag  DW_TAG_formal_parameter
     358                            .dwattr $C$DW$35, DW_AT_type(*$C$DW$T$896)
     359                    
     360                    $C$DW$36        .dwtag  DW_TAG_formal_parameter
     361                            .dwattr $C$DW$36, DW_AT_type(*$C$DW$T$886)
     362                    
     363                    $C$DW$37        .dwtag  DW_TAG_formal_parameter
     364                            .dwattr $C$DW$37, DW_AT_type(*$C$DW$T$677)
     365                    
     366                    $C$DW$38        .dwtag  DW_TAG_formal_parameter
     367                            .dwattr $C$DW$38, DW_AT_type(*$C$DW$T$680)
     368                    
     369                    $C$DW$39        .dwtag  DW_TAG_formal_parameter
     370                            .dwattr $C$DW$39, DW_AT_type(*$C$DW$T$279)
     371                    
     372                    $C$DW$40        .dwtag  DW_TAG_formal_parameter
     373                            .dwattr $C$DW$40, DW_AT_type(*$C$DW$T$279)
     374                    
     375                            .dwendtag $C$DW$33
     376                    
     377                    
     378                    $C$DW$41        .dwtag  DW_TAG_subprogram
     379                            .dwattr $C$DW$41, DW_AT_name("free")
     380                            .dwattr $C$DW$41, DW_AT_TI_symbol_name("free")
     381                            .dwattr $C$DW$41, DW_AT_declaration
     382                            .dwattr $C$DW$41, DW_AT_external
     383                            .dwattr $C$DW$41, DW_AT_decl_file("/opt/conan/ticodegen/include/stdlib.h")
     384                            .dwattr $C$DW$41, DW_AT_decl_line(0xb8)
     385                            .dwattr $C$DW$41, DW_AT_decl_column(0x19)
TI ARM Assembler Unix v20.2.5 Sun Mar 27 17:11:53 2022

Copyright (c) 1996-2018 Texas Instruments Incorporated
slwificonn.asm                                                       PAGE    8

     386                    $C$DW$42        .dwtag  DW_TAG_formal_parameter
     387                            .dwattr $C$DW$42, DW_AT_type(*$C$DW$T$3)
     388                    
     389                            .dwendtag $C$DW$41
     390                    
     391                    
     392                    $C$DW$43        .dwtag  DW_TAG_subprogram
     393                            .dwattr $C$DW$43, DW_AT_name("sl_Stop")
     394                            .dwattr $C$DW$43, DW_AT_TI_symbol_name("sl_Stop")
     395                            .dwattr $C$DW$43, DW_AT_type(*$C$DW$T$8)
     396                            .dwattr $C$DW$43, DW_AT_declaration
     397                            .dwattr $C$DW$43, DW_AT_external
     398                            .dwattr $C$DW$43, DW_AT_decl_file("/vagrant/2022_Q1_14_2_22/sdk_root/source/ti/drivers/net/wif
     399                            .dwattr $C$DW$43, DW_AT_decl_line(0x1cd)
     400                            .dwattr $C$DW$43, DW_AT_decl_column(0x06)
     401                    $C$DW$44        .dwtag  DW_TAG_formal_parameter
     402                            .dwattr $C$DW$44, DW_AT_type(*$C$DW$T$278)
     403                    
     404                            .dwendtag $C$DW$43
     405                    
     406                    
     407                    $C$DW$45        .dwtag  DW_TAG_subprogram
     408                            .dwattr $C$DW$45, DW_AT_name("sl_Start")
     409                            .dwattr $C$DW$45, DW_AT_TI_symbol_name("sl_Start")
     410                            .dwattr $C$DW$45, DW_AT_type(*$C$DW$T$8)
     411                            .dwattr $C$DW$45, DW_AT_declaration
     412                            .dwattr $C$DW$45, DW_AT_external
     413                            .dwattr $C$DW$45, DW_AT_decl_file("/vagrant/2022_Q1_14_2_22/sdk_root/source/ti/drivers/net/wif
     414                            .dwattr $C$DW$45, DW_AT_decl_line(0x1ad)
     415                            .dwattr $C$DW$45, DW_AT_decl_column(0x06)
     416                    $C$DW$46        .dwtag  DW_TAG_formal_parameter
     417                            .dwattr $C$DW$46, DW_AT_type(*$C$DW$T$412)
     418                    
     419                    $C$DW$47        .dwtag  DW_TAG_formal_parameter
     420                            .dwattr $C$DW$47, DW_AT_type(*$C$DW$T$24)
     421                    
     422                    $C$DW$48        .dwtag  DW_TAG_formal_parameter
     423                            .dwattr $C$DW$48, DW_AT_type(*$C$DW$T$847)
     424                    
     425                            .dwendtag $C$DW$45
     426                    
     427                    
     428                    $C$DW$49        .dwtag  DW_TAG_subprogram
     429                            .dwattr $C$DW$49, DW_AT_name("sl_WlanSetMode")
     430                            .dwattr $C$DW$49, DW_AT_TI_symbol_name("sl_WlanSetMode")
     431                            .dwattr $C$DW$49, DW_AT_type(*$C$DW$T$8)
     432                            .dwattr $C$DW$49, DW_AT_declaration
     433                            .dwattr $C$DW$49, DW_AT_external
     434                            .dwattr $C$DW$49, DW_AT_decl_file("/vagrant/2022_Q1_14_2_22/sdk_root/source/ti/drivers/net/wif
     435                            .dwattr $C$DW$49, DW_AT_decl_line(0x7c2)
     436                            .dwattr $C$DW$49, DW_AT_decl_column(0x06)
     437                    $C$DW$50        .dwtag  DW_TAG_formal_parameter
     438                            .dwattr $C$DW$50, DW_AT_type(*$C$DW$T$277)
     439                    
     440                            .dwendtag $C$DW$49
TI ARM Assembler Unix v20.2.5 Sun Mar 27 17:11:53 2022

Copyright (c) 1996-2018 Texas Instruments Incorporated
slwificonn.asm                                                       PAGE    9

     441                    
     442                    
     443                    $C$DW$51        .dwtag  DW_TAG_subprogram
     444                            .dwattr $C$DW$51, DW_AT_name("sl_UnregisterLibsEventHandler")
     445                            .dwattr $C$DW$51, DW_AT_TI_symbol_name("sl_UnregisterLibsEventHandler")
     446                            .dwattr $C$DW$51, DW_AT_type(*$C$DW$T$12)
     447                            .dwattr $C$DW$51, DW_AT_declaration
     448                            .dwattr $C$DW$51, DW_AT_external
     449                            .dwattr $C$DW$51, DW_AT_decl_file("/vagrant/2022_Q1_14_2_22/sdk_root/source/ti/drivers/net/wif
     450                            .dwattr $C$DW$51, DW_AT_decl_line(0x7d)
     451                            .dwattr $C$DW$51, DW_AT_decl_column(0x06)
     452                    $C$DW$52        .dwtag  DW_TAG_formal_parameter
     453                            .dwattr $C$DW$52, DW_AT_type(*$C$DW$T$592)
     454                    
     455                    $C$DW$53        .dwtag  DW_TAG_formal_parameter
     456                            .dwattr $C$DW$53, DW_AT_type(*$C$DW$T$804)
     457                    
     458                            .dwendtag $C$DW$51
     459                    
     460                    
     461                    $C$DW$54        .dwtag  DW_TAG_subprogram
     462                            .dwattr $C$DW$54, DW_AT_name("mq_close")
     463                            .dwattr $C$DW$54, DW_AT_TI_symbol_name("mq_close")
     464                            .dwattr $C$DW$54, DW_AT_type(*$C$DW$T$10)
     465                            .dwattr $C$DW$54, DW_AT_declaration
     466                            .dwattr $C$DW$54, DW_AT_external
     467                            .dwattr $C$DW$54, DW_AT_decl_file("/vagrant/2022_Q1_14_2_22/sdk_root/source/ti/posix/ccs/mqueu
     468                            .dwattr $C$DW$54, DW_AT_decl_line(0x57)
     469                            .dwattr $C$DW$54, DW_AT_decl_column(0x0c)
     470                    $C$DW$55        .dwtag  DW_TAG_formal_parameter
     471                            .dwattr $C$DW$55, DW_AT_type(*$C$DW$T$81)
     472                    
     473                            .dwendtag $C$DW$54
     474                    
     475                    
     476                    $C$DW$56        .dwtag  DW_TAG_subprogram
     477                            .dwattr $C$DW$56, DW_AT_name("timer_delete")
     478                            .dwattr $C$DW$56, DW_AT_TI_symbol_name("timer_delete")
     479                            .dwattr $C$DW$56, DW_AT_type(*$C$DW$T$10)
     480                            .dwattr $C$DW$56, DW_AT_declaration
     481                            .dwattr $C$DW$56, DW_AT_external
     482                            .dwattr $C$DW$56, DW_AT_decl_file("/vagrant/2022_Q1_14_2_22/sdk_root/source/ti/posix/ccs/time.
     483                            .dwattr $C$DW$56, DW_AT_decl_line(0x83)
     484                            .dwattr $C$DW$56, DW_AT_decl_column(0x0c)
     485                    $C$DW$57        .dwtag  DW_TAG_formal_parameter
     486                            .dwattr $C$DW$57, DW_AT_type(*$C$DW$T$84)
     487                    
     488                            .dwendtag $C$DW$56
     489                    
     490                    
     491                    $C$DW$58        .dwtag  DW_TAG_subprogram
     492                            .dwattr $C$DW$58, DW_AT_name("sem_post")
     493                            .dwattr $C$DW$58, DW_AT_TI_symbol_name("sem_post")
     494                            .dwattr $C$DW$58, DW_AT_type(*$C$DW$T$10)
     495                            .dwattr $C$DW$58, DW_AT_declaration
TI ARM Assembler Unix v20.2.5 Sun Mar 27 17:11:53 2022

Copyright (c) 1996-2018 Texas Instruments Incorporated
slwificonn.asm                                                       PAGE   10

     496                            .dwattr $C$DW$58, DW_AT_external
     497                            .dwattr $C$DW$58, DW_AT_decl_file("/vagrant/2022_Q1_14_2_22/sdk_root/source/ti/posix/ccs/semap
     498                            .dwattr $C$DW$58, DW_AT_decl_line(0x45)
     499                            .dwattr $C$DW$58, DW_AT_decl_column(0x08)
     500                    $C$DW$59        .dwtag  DW_TAG_formal_parameter
     501                            .dwattr $C$DW$59, DW_AT_type(*$C$DW$T$793)
     502                    
     503                            .dwendtag $C$DW$58
     504                    
     505                    
     506                    $C$DW$60        .dwtag  DW_TAG_subprogram
     507                            .dwattr $C$DW$60, DW_AT_name("sem_destroy")
     508                            .dwattr $C$DW$60, DW_AT_TI_symbol_name("sem_destroy")
     509                            .dwattr $C$DW$60, DW_AT_type(*$C$DW$T$10)
     510                            .dwattr $C$DW$60, DW_AT_declaration
     511                            .dwattr $C$DW$60, DW_AT_external
     512                            .dwattr $C$DW$60, DW_AT_decl_file("/vagrant/2022_Q1_14_2_22/sdk_root/source/ti/posix/ccs/semap
     513                            .dwattr $C$DW$60, DW_AT_decl_line(0x42)
     514                            .dwattr $C$DW$60, DW_AT_decl_column(0x08)
     515                    $C$DW$61        .dwtag  DW_TAG_formal_parameter
     516                            .dwattr $C$DW$61, DW_AT_type(*$C$DW$T$793)
     517                    
     518                            .dwendtag $C$DW$60
     519                    
     520                    
     521                    $C$DW$62        .dwtag  DW_TAG_subprogram
     522                            .dwattr $C$DW$62, DW_AT_name("sl_WlanPolicyGet")
     523                            .dwattr $C$DW$62, DW_AT_TI_symbol_name("sl_WlanPolicyGet")
     524                            .dwattr $C$DW$62, DW_AT_type(*$C$DW$T$8)
     525                            .dwattr $C$DW$62, DW_AT_declaration
     526                            .dwattr $C$DW$62, DW_AT_external
     527                            .dwattr $C$DW$62, DW_AT_decl_file("/vagrant/2022_Q1_14_2_22/sdk_root/source/ti/drivers/net/wif
     528                            .dwattr $C$DW$62, DW_AT_decl_line(0x6be)
     529                            .dwattr $C$DW$62, DW_AT_decl_column(0x06)
     530                    $C$DW$63        .dwtag  DW_TAG_formal_parameter
     531                            .dwattr $C$DW$63, DW_AT_type(*$C$DW$T$277)
     532                    
     533                    $C$DW$64        .dwtag  DW_TAG_formal_parameter
     534                            .dwattr $C$DW$64, DW_AT_type(*$C$DW$T$165)
     535                    
     536                    $C$DW$65        .dwtag  DW_TAG_formal_parameter
     537                            .dwattr $C$DW$65, DW_AT_type(*$C$DW$T$165)
     538                    
     539                    $C$DW$66        .dwtag  DW_TAG_formal_parameter
     540                            .dwattr $C$DW$66, DW_AT_type(*$C$DW$T$165)
     541                    
     542                            .dwendtag $C$DW$62
     543                    
     544                    
     545                    $C$DW$67        .dwtag  DW_TAG_subprogram
     546                            .dwattr $C$DW$67, DW_AT_name("sl_WlanPolicySet")
     547                            .dwattr $C$DW$67, DW_AT_TI_symbol_name("sl_WlanPolicySet")
     548                            .dwattr $C$DW$67, DW_AT_type(*$C$DW$T$8)
     549                            .dwattr $C$DW$67, DW_AT_declaration
     550                            .dwattr $C$DW$67, DW_AT_external
TI ARM Assembler Unix v20.2.5 Sun Mar 27 17:11:53 2022

Copyright (c) 1996-2018 Texas Instruments Incorporated
slwificonn.asm                                                       PAGE   11

     551                            .dwattr $C$DW$67, DW_AT_decl_file("/vagrant/2022_Q1_14_2_22/sdk_root/source/ti/drivers/net/wif
     552                            .dwattr $C$DW$67, DW_AT_decl_line(0x663)
     553                            .dwattr $C$DW$67, DW_AT_decl_column(0x06)
     554                    $C$DW$68        .dwtag  DW_TAG_formal_parameter
     555                            .dwattr $C$DW$68, DW_AT_type(*$C$DW$T$277)
     556                    
     557                    $C$DW$69        .dwtag  DW_TAG_formal_parameter
     558                            .dwattr $C$DW$69, DW_AT_type(*$C$DW$T$277)
     559                    
     560                    $C$DW$70        .dwtag  DW_TAG_formal_parameter
     561                            .dwattr $C$DW$70, DW_AT_type(*$C$DW$T$165)
     562                    
     563                    $C$DW$71        .dwtag  DW_TAG_formal_parameter
     564                            .dwattr $C$DW$71, DW_AT_type(*$C$DW$T$277)
     565                    
     566                            .dwendtag $C$DW$67
     567                    
     568                    
     569                    $C$DW$72        .dwtag  DW_TAG_subprogram
     570                            .dwattr $C$DW$72, DW_AT_name("sem_wait")
     571                            .dwattr $C$DW$72, DW_AT_TI_symbol_name("sem_wait")
     572                            .dwattr $C$DW$72, DW_AT_type(*$C$DW$T$10)
     573                            .dwattr $C$DW$72, DW_AT_declaration
     574                            .dwattr $C$DW$72, DW_AT_external
     575                            .dwattr $C$DW$72, DW_AT_decl_file("/vagrant/2022_Q1_14_2_22/sdk_root/source/ti/posix/ccs/semap
     576                            .dwattr $C$DW$72, DW_AT_decl_line(0x48)
     577                            .dwattr $C$DW$72, DW_AT_decl_column(0x08)
     578                    $C$DW$73        .dwtag  DW_TAG_formal_parameter
     579                            .dwattr $C$DW$73, DW_AT_type(*$C$DW$T$793)
     580                    
     581                            .dwendtag $C$DW$72
     582                    
     583                    
     584                    $C$DW$74        .dwtag  DW_TAG_subprogram
     585                            .dwattr $C$DW$74, DW_AT_name("strlen")
     586                            .dwattr $C$DW$74, DW_AT_TI_symbol_name("strlen")
     587                            .dwattr $C$DW$74, DW_AT_type(*$C$DW$T$281)
     588                            .dwattr $C$DW$74, DW_AT_declaration
     589                            .dwattr $C$DW$74, DW_AT_external
     590                            .dwattr $C$DW$74, DW_AT_decl_file("/opt/conan/ticodegen/include/string.h")
     591                            .dwattr $C$DW$74, DW_AT_decl_line(0x56)
     592                            .dwattr $C$DW$74, DW_AT_decl_column(0x14)
     593                    $C$DW$75        .dwtag  DW_TAG_formal_parameter
     594                            .dwattr $C$DW$75, DW_AT_type(*$C$DW$T$490)
     595                    
     596                            .dwendtag $C$DW$74
     597                    
     598                    
     599                    $C$DW$76        .dwtag  DW_TAG_subprogram
     600                            .dwattr $C$DW$76, DW_AT_name("sl_WlanSet")
     601                            .dwattr $C$DW$76, DW_AT_TI_symbol_name("sl_WlanSet")
     602                            .dwattr $C$DW$76, DW_AT_type(*$C$DW$T$8)
     603                            .dwattr $C$DW$76, DW_AT_declaration
     604                            .dwattr $C$DW$76, DW_AT_external
     605                            .dwattr $C$DW$76, DW_AT_decl_file("/vagrant/2022_Q1_14_2_22/sdk_root/source/ti/drivers/net/wif
TI ARM Assembler Unix v20.2.5 Sun Mar 27 17:11:53 2022

Copyright (c) 1996-2018 Texas Instruments Incorporated
slwificonn.asm                                                       PAGE   12

     606                            .dwattr $C$DW$76, DW_AT_decl_line(0x979)
     607                            .dwattr $C$DW$76, DW_AT_decl_column(0x06)
     608                    $C$DW$77        .dwtag  DW_TAG_formal_parameter
     609                            .dwattr $C$DW$77, DW_AT_type(*$C$DW$T$278)
     610                    
     611                    $C$DW$78        .dwtag  DW_TAG_formal_parameter
     612                            .dwattr $C$DW$78, DW_AT_type(*$C$DW$T$278)
     613                    
     614                    $C$DW$79        .dwtag  DW_TAG_formal_parameter
     615                            .dwattr $C$DW$79, DW_AT_type(*$C$DW$T$278)
     616                    
     617                    $C$DW$80        .dwtag  DW_TAG_formal_parameter
     618                            .dwattr $C$DW$80, DW_AT_type(*$C$DW$T$886)
     619                    
     620                            .dwendtag $C$DW$76
     621                    
     622                    
     623                    $C$DW$81        .dwtag  DW_TAG_subprogram
     624                            .dwattr $C$DW$81, DW_AT_name("sl_NetCfgGet")
     625                            .dwattr $C$DW$81, DW_AT_TI_symbol_name("sl_NetCfgGet")
     626                            .dwattr $C$DW$81, DW_AT_type(*$C$DW$T$8)
     627                            .dwattr $C$DW$81, DW_AT_declaration
     628                            .dwattr $C$DW$81, DW_AT_external
     629                            .dwattr $C$DW$81, DW_AT_decl_file("/vagrant/2022_Q1_14_2_22/sdk_root/source/ti/drivers/net/wif
     630                            .dwattr $C$DW$81, DW_AT_decl_line(0x2b2)
     631                            .dwattr $C$DW$81, DW_AT_decl_column(0x06)
     632                    $C$DW$82        .dwtag  DW_TAG_formal_parameter
     633                            .dwattr $C$DW$82, DW_AT_type(*$C$DW$T$278)
     634                    
     635                    $C$DW$83        .dwtag  DW_TAG_formal_parameter
     636                            .dwattr $C$DW$83, DW_AT_type(*$C$DW$T$265)
     637                    
     638                    $C$DW$84        .dwtag  DW_TAG_formal_parameter
     639                            .dwattr $C$DW$84, DW_AT_type(*$C$DW$T$265)
     640                    
     641                    $C$DW$85        .dwtag  DW_TAG_formal_parameter
     642                            .dwattr $C$DW$85, DW_AT_type(*$C$DW$T$165)
     643                    
     644                            .dwendtag $C$DW$81
     645                    
     646                    
     647                    $C$DW$86        .dwtag  DW_TAG_subprogram
     648                            .dwattr $C$DW$86, DW_AT_name("sl_WlanProvisioning")
     649                            .dwattr $C$DW$86, DW_AT_TI_symbol_name("sl_WlanProvisioning")
     650                            .dwattr $C$DW$86, DW_AT_type(*$C$DW$T$8)
     651                            .dwattr $C$DW$86, DW_AT_declaration
     652                            .dwattr $C$DW$86, DW_AT_external
     653                            .dwattr $C$DW$86, DW_AT_decl_file("/vagrant/2022_Q1_14_2_22/sdk_root/source/ti/drivers/net/wif
     654                            .dwattr $C$DW$86, DW_AT_decl_line(0x7a2)
     655                            .dwattr $C$DW$86, DW_AT_decl_column(0x06)
     656                    $C$DW$87        .dwtag  DW_TAG_formal_parameter
     657                            .dwattr $C$DW$87, DW_AT_type(*$C$DW$T$6)
     658                    
     659                    $C$DW$88        .dwtag  DW_TAG_formal_parameter
     660                            .dwattr $C$DW$88, DW_AT_type(*$C$DW$T$6)
TI ARM Assembler Unix v20.2.5 Sun Mar 27 17:11:53 2022

Copyright (c) 1996-2018 Texas Instruments Incorporated
slwificonn.asm                                                       PAGE   13

     661                    
     662                    $C$DW$89        .dwtag  DW_TAG_formal_parameter
     663                            .dwattr $C$DW$89, DW_AT_type(*$C$DW$T$9)
     664                    
     665                    $C$DW$90        .dwtag  DW_TAG_formal_parameter
     666                            .dwattr $C$DW$90, DW_AT_type(*$C$DW$T$69)
     667                    
     668                    $C$DW$91        .dwtag  DW_TAG_formal_parameter
     669                            .dwattr $C$DW$91, DW_AT_type(*$C$DW$T$13)
     670                    
     671                            .dwendtag $C$DW$86
     672                    
     673                    
     674                    $C$DW$92        .dwtag  DW_TAG_subprogram
     675                            .dwattr $C$DW$92, DW_AT_name("sl_WlanProfileDel")
     676                            .dwattr $C$DW$92, DW_AT_TI_symbol_name("sl_WlanProfileDel")
     677                            .dwattr $C$DW$92, DW_AT_type(*$C$DW$T$8)
     678                            .dwattr $C$DW$92, DW_AT_declaration
     679                            .dwattr $C$DW$92, DW_AT_external
     680                            .dwattr $C$DW$92, DW_AT_decl_file("/vagrant/2022_Q1_14_2_22/sdk_root/source/ti/drivers/net/wif
     681                            .dwattr $C$DW$92, DW_AT_decl_line(0x5cd)
     682                            .dwattr $C$DW$92, DW_AT_decl_column(0x06)
     683                    $C$DW$93        .dwtag  DW_TAG_formal_parameter
     684                            .dwattr $C$DW$93, DW_AT_type(*$C$DW$T$896)
     685                    
     686                            .dwendtag $C$DW$92
     687                    
     688                    
     689                    $C$DW$94        .dwtag  DW_TAG_subprogram
     690                            .dwattr $C$DW$94, DW_AT_name("memset")
     691                            .dwattr $C$DW$94, DW_AT_TI_symbol_name("memset")
     692                            .dwattr $C$DW$94, DW_AT_type(*$C$DW$T$3)
     693                            .dwattr $C$DW$94, DW_AT_declaration
     694                            .dwattr $C$DW$94, DW_AT_external
     695                            .dwattr $C$DW$94, DW_AT_decl_file("/opt/conan/ticodegen/include/string.h")
     696                            .dwattr $C$DW$94, DW_AT_decl_line(0x82)
     697                            .dwattr $C$DW$94, DW_AT_decl_column(0x16)
     698                    $C$DW$95        .dwtag  DW_TAG_formal_parameter
     699                            .dwattr $C$DW$95, DW_AT_type(*$C$DW$T$3)
     700                    
     701                    $C$DW$96        .dwtag  DW_TAG_formal_parameter
     702                            .dwattr $C$DW$96, DW_AT_type(*$C$DW$T$10)
     703                    
     704                    $C$DW$97        .dwtag  DW_TAG_formal_parameter
     705                            .dwattr $C$DW$97, DW_AT_type(*$C$DW$T$281)
     706                    
     707                            .dwendtag $C$DW$94
     708                    
     709                    
     710                    $C$DW$98        .dwtag  DW_TAG_subprogram
     711                            .dwattr $C$DW$98, DW_AT_name("timer_settime")
     712                            .dwattr $C$DW$98, DW_AT_TI_symbol_name("timer_settime")
     713                            .dwattr $C$DW$98, DW_AT_type(*$C$DW$T$10)
     714                            .dwattr $C$DW$98, DW_AT_declaration
     715                            .dwattr $C$DW$98, DW_AT_external
TI ARM Assembler Unix v20.2.5 Sun Mar 27 17:11:53 2022

Copyright (c) 1996-2018 Texas Instruments Incorporated
slwificonn.asm                                                       PAGE   14

     716                            .dwattr $C$DW$98, DW_AT_decl_file("/vagrant/2022_Q1_14_2_22/sdk_root/source/ti/posix/ccs/time.
     717                            .dwattr $C$DW$98, DW_AT_decl_line(0x85)
     718                            .dwattr $C$DW$98, DW_AT_decl_column(0x0c)
     719                    $C$DW$99        .dwtag  DW_TAG_formal_parameter
     720                            .dwattr $C$DW$99, DW_AT_type(*$C$DW$T$84)
     721                    
     722                    $C$DW$100       .dwtag  DW_TAG_formal_parameter
     723                            .dwattr $C$DW$100, DW_AT_type(*$C$DW$T$10)
     724                    
     725                    $C$DW$101       .dwtag  DW_TAG_formal_parameter
     726                            .dwattr $C$DW$101, DW_AT_type(*$C$DW$T$949)
     727                    
     728                    $C$DW$102       .dwtag  DW_TAG_formal_parameter
     729                            .dwattr $C$DW$102, DW_AT_type(*$C$DW$T$950)
     730                    
     731                            .dwendtag $C$DW$98
     732                    
     733                    
     734                    $C$DW$103       .dwtag  DW_TAG_subprogram
     735                            .dwattr $C$DW$103, DW_AT_name("sleep")
     736                            .dwattr $C$DW$103, DW_AT_TI_symbol_name("sleep")
     737                            .dwattr $C$DW$103, DW_AT_type(*$C$DW$T$11)
     738                            .dwattr $C$DW$103, DW_AT_declaration
     739                            .dwattr $C$DW$103, DW_AT_external
     740                            .dwattr $C$DW$103, DW_AT_decl_file("/vagrant/2022_Q1_14_2_22/sdk_root/source/ti/posix/ccs/unis
     741                            .dwattr $C$DW$103, DW_AT_decl_line(0x34)
     742                            .dwattr $C$DW$103, DW_AT_decl_column(0x11)
     743                    $C$DW$104       .dwtag  DW_TAG_formal_parameter
     744                            .dwattr $C$DW$104, DW_AT_type(*$C$DW$T$11)
     745                    
     746                            .dwendtag $C$DW$103
     747                    
     748                    
     749                    $C$DW$105       .dwtag  DW_TAG_subprogram
     750                            .dwattr $C$DW$105, DW_AT_name("sem_init")
     751                            .dwattr $C$DW$105, DW_AT_TI_symbol_name("sem_init")
     752                            .dwattr $C$DW$105, DW_AT_type(*$C$DW$T$10)
     753                            .dwattr $C$DW$105, DW_AT_declaration
     754                            .dwattr $C$DW$105, DW_AT_external
     755                            .dwattr $C$DW$105, DW_AT_decl_file("/vagrant/2022_Q1_14_2_22/sdk_root/source/ti/posix/ccs/sema
     756                            .dwattr $C$DW$105, DW_AT_decl_line(0x44)
     757                            .dwattr $C$DW$105, DW_AT_decl_column(0x08)
     758                    $C$DW$106       .dwtag  DW_TAG_formal_parameter
     759                            .dwattr $C$DW$106, DW_AT_type(*$C$DW$T$793)
     760                    
     761                    $C$DW$107       .dwtag  DW_TAG_formal_parameter
     762                            .dwattr $C$DW$107, DW_AT_type(*$C$DW$T$10)
     763                    
     764                    $C$DW$108       .dwtag  DW_TAG_formal_parameter
     765                            .dwattr $C$DW$108, DW_AT_type(*$C$DW$T$11)
     766                    
     767                            .dwendtag $C$DW$105
     768                    
     769                    
     770                    $C$DW$109       .dwtag  DW_TAG_subprogram
TI ARM Assembler Unix v20.2.5 Sun Mar 27 17:11:53 2022

Copyright (c) 1996-2018 Texas Instruments Incorporated
slwificonn.asm                                                       PAGE   15

     771                            .dwattr $C$DW$109, DW_AT_name("calloc")
     772                            .dwattr $C$DW$109, DW_AT_TI_symbol_name("calloc")
     773                            .dwattr $C$DW$109, DW_AT_type(*$C$DW$T$3)
     774                            .dwattr $C$DW$109, DW_AT_declaration
     775                            .dwattr $C$DW$109, DW_AT_external
     776                            .dwattr $C$DW$109, DW_AT_decl_file("/opt/conan/ticodegen/include/stdlib.h")
     777                            .dwattr $C$DW$109, DW_AT_decl_line(0xb3)
     778                            .dwattr $C$DW$109, DW_AT_decl_column(0x19)
     779                    $C$DW$110       .dwtag  DW_TAG_formal_parameter
     780                            .dwattr $C$DW$110, DW_AT_type(*$C$DW$T$281)
     781                    
     782                    $C$DW$111       .dwtag  DW_TAG_formal_parameter
     783                            .dwattr $C$DW$111, DW_AT_type(*$C$DW$T$281)
     784                    
     785                            .dwendtag $C$DW$109
     786                    
     787                    
     788                    $C$DW$112       .dwtag  DW_TAG_subprogram
     789                            .dwattr $C$DW$112, DW_AT_name("mq_open")
     790                            .dwattr $C$DW$112, DW_AT_TI_symbol_name("mq_open")
     791                            .dwattr $C$DW$112, DW_AT_type(*$C$DW$T$81)
     792                            .dwattr $C$DW$112, DW_AT_declaration
     793                            .dwattr $C$DW$112, DW_AT_external
     794                            .dwattr $C$DW$112, DW_AT_decl_file("/vagrant/2022_Q1_14_2_22/sdk_root/source/ti/posix/ccs/mque
     795                            .dwattr $C$DW$112, DW_AT_decl_line(0x59)
     796                            .dwattr $C$DW$112, DW_AT_decl_column(0x0e)
     797                    $C$DW$113       .dwtag  DW_TAG_formal_parameter
     798                            .dwattr $C$DW$113, DW_AT_type(*$C$DW$T$490)
     799                    
     800                    $C$DW$114       .dwtag  DW_TAG_formal_parameter
     801                            .dwattr $C$DW$114, DW_AT_type(*$C$DW$T$10)
     802                    
     803                    $C$DW$115       .dwtag  DW_TAG_unspecified_parameters
     804                    
     805                            .dwendtag $C$DW$112
     806                    
     807                    
     808                    $C$DW$116       .dwtag  DW_TAG_subprogram
     809                            .dwattr $C$DW$116, DW_AT_name("pthread_attr_init")
     810                            .dwattr $C$DW$116, DW_AT_TI_symbol_name("pthread_attr_init")
     811                            .dwattr $C$DW$116, DW_AT_type(*$C$DW$T$10)
     812                            .dwattr $C$DW$116, DW_AT_declaration
     813                            .dwattr $C$DW$116, DW_AT_external
     814                            .dwattr $C$DW$116, DW_AT_decl_file("/vagrant/2022_Q1_14_2_22/sdk_root/source/ti/posix/ccs/pthr
     815                            .dwattr $C$DW$116, DW_AT_decl_line(0x79)
     816                            .dwattr $C$DW$116, DW_AT_decl_column(0x0c)
     817                    $C$DW$117       .dwtag  DW_TAG_formal_parameter
     818                            .dwattr $C$DW$117, DW_AT_type(*$C$DW$T$572)
     819                    
     820                            .dwendtag $C$DW$116
     821                    
     822                    
     823                    $C$DW$118       .dwtag  DW_TAG_subprogram
     824                            .dwattr $C$DW$118, DW_AT_name("timer_create")
     825                            .dwattr $C$DW$118, DW_AT_TI_symbol_name("timer_create")
TI ARM Assembler Unix v20.2.5 Sun Mar 27 17:11:53 2022

Copyright (c) 1996-2018 Texas Instruments Incorporated
slwificonn.asm                                                       PAGE   16

     826                            .dwattr $C$DW$118, DW_AT_type(*$C$DW$T$10)
     827                            .dwattr $C$DW$118, DW_AT_declaration
     828                            .dwattr $C$DW$118, DW_AT_external
     829                            .dwattr $C$DW$118, DW_AT_decl_file("/vagrant/2022_Q1_14_2_22/sdk_root/source/ti/posix/ccs/time
     830                            .dwattr $C$DW$118, DW_AT_decl_line(0x81)
     831                            .dwattr $C$DW$118, DW_AT_decl_column(0x0c)
     832                    $C$DW$119       .dwtag  DW_TAG_formal_parameter
     833                            .dwattr $C$DW$119, DW_AT_type(*$C$DW$T$941)
     834                    
     835                    $C$DW$120       .dwtag  DW_TAG_formal_parameter
     836                            .dwattr $C$DW$120, DW_AT_type(*$C$DW$T$942)
     837                    
     838                    $C$DW$121       .dwtag  DW_TAG_formal_parameter
     839                            .dwattr $C$DW$121, DW_AT_type(*$C$DW$T$943)
     840                    
     841                            .dwendtag $C$DW$118
     842                    
     843                    
     844                    $C$DW$122       .dwtag  DW_TAG_subprogram
     845                            .dwattr $C$DW$122, DW_AT_name("sl_RegisterLibsEventHandler")
     846                            .dwattr $C$DW$122, DW_AT_TI_symbol_name("sl_RegisterLibsEventHandler")
     847                            .dwattr $C$DW$122, DW_AT_type(*$C$DW$T$12)
     848                            .dwattr $C$DW$122, DW_AT_declaration
     849                            .dwattr $C$DW$122, DW_AT_external
     850                            .dwattr $C$DW$122, DW_AT_decl_file("/vagrant/2022_Q1_14_2_22/sdk_root/source/ti/drivers/net/wi
     851                            .dwattr $C$DW$122, DW_AT_decl_line(0x6f)
     852                            .dwattr $C$DW$122, DW_AT_decl_column(0x06)
     853                    $C$DW$123       .dwtag  DW_TAG_formal_parameter
     854                            .dwattr $C$DW$123, DW_AT_type(*$C$DW$T$592)
     855                    
     856                    $C$DW$124       .dwtag  DW_TAG_formal_parameter
     857                            .dwattr $C$DW$124, DW_AT_type(*$C$DW$T$804)
     858                    
     859                            .dwendtag $C$DW$122
     860                    
     861                    
     862                    $C$DW$125       .dwtag  DW_TAG_subprogram
     863                            .dwattr $C$DW$125, DW_AT_name("malloc")
     864                            .dwattr $C$DW$125, DW_AT_TI_symbol_name("malloc")
     865                            .dwattr $C$DW$125, DW_AT_type(*$C$DW$T$3)
     866                            .dwattr $C$DW$125, DW_AT_declaration
     867                            .dwattr $C$DW$125, DW_AT_external
     868                            .dwattr $C$DW$125, DW_AT_decl_file("/opt/conan/ticodegen/include/stdlib.h")
     869                            .dwattr $C$DW$125, DW_AT_decl_line(0xb5)
     870                            .dwattr $C$DW$125, DW_AT_decl_column(0x19)
     871                    $C$DW$126       .dwtag  DW_TAG_formal_parameter
     872                            .dwattr $C$DW$126, DW_AT_type(*$C$DW$T$281)
     873                    
     874                            .dwendtag $C$DW$125
     875                    
     876                    ;       /opt/conan/ticodegen/bin/armacpia -@/tmp/TI5YjqshKsn 
     877 00000000                   .sect   ".text:__swp"
     878                            .clink
     879                            .thumbfunc __swp
     880 00000000                   .thumb
TI ARM Assembler Unix v20.2.5 Sun Mar 27 17:11:53 2022

Copyright (c) 1996-2018 Texas Instruments Incorporated
slwificonn.asm                                                       PAGE   17

     881                            .global __swp
     882                    
     883                    $C$DW$127       .dwtag  DW_TAG_subprogram
     884                            .dwattr $C$DW$127, DW_AT_name("__swp")
     885                            .dwattr $C$DW$127, DW_AT_low_pc(__swp)
     886                            .dwattr $C$DW$127, DW_AT_high_pc(0x00)
     887                            .dwattr $C$DW$127, DW_AT_TI_symbol_name("__swp")
     888                            .dwattr $C$DW$127, DW_AT_external
     889                            .dwattr $C$DW$127, DW_AT_type(*$C$DW$T$112)
     890                            .dwattr $C$DW$127, DW_AT_TI_begin_file("/opt/conan/ticodegen/include/arm_acle.h")
     891                            .dwattr $C$DW$127, DW_AT_TI_begin_line(0x93)
     892                            .dwattr $C$DW$127, DW_AT_TI_begin_column(0x01)
     893                            .dwattr $C$DW$127, DW_AT_decl_file("/opt/conan/ticodegen/include/arm_acle.h")
     894                            .dwattr $C$DW$127, DW_AT_decl_line(0x93)
     895                            .dwattr $C$DW$127, DW_AT_decl_column(0x01)
     896                            .dwattr $C$DW$127, DW_AT_TI_max_frame_size(0x10)
     897                            .dwpsn  file "/opt/conan/ticodegen/include/arm_acle.h",line 148,column 1,is_stmt,address __swp
     898                    
     899                            .dwfde $C$DW$CIE, __swp
     900                    $C$DW$128       .dwtag  DW_TAG_formal_parameter
     901                            .dwattr $C$DW$128, DW_AT_name("x")
     902                            .dwattr $C$DW$128, DW_AT_TI_symbol_name("x")
     903                            .dwattr $C$DW$128, DW_AT_type(*$C$DW$T$112)
     904                            .dwattr $C$DW$128, DW_AT_location[DW_OP_reg0]
     905                    
     906                    $C$DW$129       .dwtag  DW_TAG_formal_parameter
     907                            .dwattr $C$DW$129, DW_AT_name("p")
     908                            .dwattr $C$DW$129, DW_AT_TI_symbol_name("p")
     909                            .dwattr $C$DW$129, DW_AT_type(*$C$DW$T$475)
     910                            .dwattr $C$DW$129, DW_AT_location[DW_OP_reg1]
     911                    
     912                    ;----------------------------------------------------------------------
     913                    ; 147 | __swp(uint32_t x, uint32_t *p)                                         
     914                    ;----------------------------------------------------------------------
     915                    
     916                    ;*****************************************************************************
     917                    ;* FUNCTION NAME: __swp                                                      *
     918                    ;*                                                                           *
     919                    ;*   Regs Modified     : A1,A2,A3,SP,SR                                      *
     920                    ;*   Regs Used         : A1,A2,A3,SP,LR,SR                                   *
     921                    ;*   Local Frame Size  : 0 Args + 12 Auto + 0 Save = 12 byte                 *
     922                    ;*****************************************************************************
     923 00000000           __swp:
     924                    ;* --------------------------------------------------------------------------*
     925                            .dwcfi  cfa_offset, 0
     926 00000000 0D10F1AD          SUB       SP, SP, #16           ; [DPU_V7M3_PIPE]  ; [KEEP 32-BIT INS]
     927                            .dwcfi  cfa_offset, 16
     928                    $C$DW$130       .dwtag  DW_TAG_variable
     929                            .dwattr $C$DW$130, DW_AT_name("x")
     930                            .dwattr $C$DW$130, DW_AT_TI_symbol_name("x")
     931                            .dwattr $C$DW$130, DW_AT_type(*$C$DW$T$112)
     932                            .dwattr $C$DW$130, DW_AT_location[DW_OP_breg13 0]
     933                    
     934                    $C$DW$131       .dwtag  DW_TAG_variable
     935                            .dwattr $C$DW$131, DW_AT_name("p")
TI ARM Assembler Unix v20.2.5 Sun Mar 27 17:11:53 2022

Copyright (c) 1996-2018 Texas Instruments Incorporated
slwificonn.asm                                                       PAGE   18

     936                            .dwattr $C$DW$131, DW_AT_TI_symbol_name("p")
     937                            .dwattr $C$DW$131, DW_AT_type(*$C$DW$T$475)
     938                            .dwattr $C$DW$131, DW_AT_location[DW_OP_breg13 4]
     939                    
     940                    $C$DW$132       .dwtag  DW_TAG_variable
     941                            .dwattr $C$DW$132, DW_AT_name("v")
     942                            .dwattr $C$DW$132, DW_AT_TI_symbol_name("v")
     943                            .dwattr $C$DW$132, DW_AT_type(*$C$DW$T$112)
     944                            .dwattr $C$DW$132, DW_AT_location[DW_OP_breg13 8]
     945                    
     946                    ;----------------------------------------------------------------------
     947                    ; 149 | uint32_t v;                                                            
     948                    ;----------------------------------------------------------------------
     949 00000004 9101              STR       A2, [SP, #4]          ; [DPU_V7M3_PIPE] |148|  ; [ORIG 16-BIT INS]
     950 00000006 9000              STR       A1, [SP, #0]          ; [DPU_V7M3_PIPE] |148|  ; [ORIG 16-BIT INS]
     951                    ;* --------------------------------------------------------------------------*
     952                    ;*   BEGIN LOOP ||$C$L1||
     953                    ;*
     954                    ;*   Loop source line                : 150
     955                    ;*   Loop closing brace source line  : 150
     956                    ;*   Known Minimum Trip Count        : 1
     957                    ;*   Known Maximum Trip Count        : 4294967295
     958                    ;*   Known Max Trip Count Factor     : 1
     959                    ;* --------------------------------------------------------------------------*
     960 00000008           ||$C$L1||:    
     961                            .dwpsn  file "/opt/conan/ticodegen/include/arm_acle.h",line 150,column 7,is_stmt,isa 1
     962                    ;----------------------------------------------------------------------
     963                    ; 150 | do v = __ldrex(p); while (__strex(x, p));                              
     964                    ;----------------------------------------------------------------------
     965 00000008 9801              LDR       A1, [SP, #4]          ; [DPU_V7M3_PIPE] |150|  ; [ORIG 16-BIT INS]
     966 0000000a 0F00E850          LDREX     A1, [A1]              ; [DPU_V7M3_PIPE] |150|  ; [KEEP 32-BIT INS]
     967 0000000e 9002              STR       A1, [SP, #8]          ; [DPU_V7M3_PIPE] |150|  ; [ORIG 16-BIT INS]
     968                            .dwpsn  file "/opt/conan/ticodegen/include/arm_acle.h",line 150,column 4,is_stmt,isa 1
     969 00000010 9901              LDR       A2, [SP, #4]          ; [DPU_V7M3_PIPE] |150|  ; [ORIG 16-BIT INS]
     970 00000012 9A00              LDR       A3, [SP, #0]          ; [DPU_V7M3_PIPE] |150|  ; [ORIG 16-BIT INS]
     971 00000014 2000E841          STREX     A1, A3, [A2]          ; [DPU_V7M3_PIPE] |150|  ; [KEEP 32-BIT INS]
     972 00000018 2800              CMP       A1, #0                ; [DPU_V7M3_PIPE] |150|  ; [ORIG 16-BIT INS]
     973 0000001a D1F5              BNE       ||$C$L1||             ; [DPU_V7M3_PIPE] |150|  ; [ORIG 16-BIT INS]
     974                            ; BRANCHCC OCCURS {||$C$L1||}    ; [] |150| 
     975                    ;* --------------------------------------------------------------------------*
     976                            .dwpsn  file "/opt/conan/ticodegen/include/arm_acle.h",line 151,column 4,is_stmt,isa 1
     977                    ;----------------------------------------------------------------------
     978                    ; 151 | return v;                                                              
     979                    ;----------------------------------------------------------------------
     980 0000001c 9802              LDR       A1, [SP, #8]          ; [DPU_V7M3_PIPE] |151|  ; [ORIG 16-BIT INS]
     981                            .dwpsn  file "/opt/conan/ticodegen/include/arm_acle.h",line 152,column 1,is_stmt,isa 1
     982 0000001e B004              ADD       SP, SP, #16           ; [DPU_V7M3_PIPE]  ; [ORIG 16-BIT INS]
     983                            .dwcfi  cfa_offset, 0
     984                    $C$DW$133       .dwtag  DW_TAG_TI_branch
     985                            .dwattr $C$DW$133, DW_AT_low_pc(0x00)
     986                            .dwattr $C$DW$133, DW_AT_TI_return
     987                    
     988 00000020 4770              BX        LR                    ; [DPU_V7M3_PIPE]  ; [ORIG 16-BIT INS]
     989                            ; BRANCH OCCURS                  ; [] 
     990                            .dwattr $C$DW$127, DW_AT_TI_end_file("/opt/conan/ticodegen/include/arm_acle.h")
TI ARM Assembler Unix v20.2.5 Sun Mar 27 17:11:53 2022

Copyright (c) 1996-2018 Texas Instruments Incorporated
slwificonn.asm                                                       PAGE   19

     991                            .dwattr $C$DW$127, DW_AT_TI_end_line(0x98)
     992                            .dwattr $C$DW$127, DW_AT_TI_end_column(0x01)
     993                            .dwendentry
     994                            .dwendtag $C$DW$127
     995                    
     996 00000000                   .sect   ".text:DummyPrintf"
     997                            .clink
     998                            .thumbfunc DummyPrintf
     999 00000000                   .thumb
    1000                    
    1001                    $C$DW$134       .dwtag  DW_TAG_subprogram
    1002                            .dwattr $C$DW$134, DW_AT_name("DummyPrintf")
    1003                            .dwattr $C$DW$134, DW_AT_low_pc(DummyPrintf)
    1004                            .dwattr $C$DW$134, DW_AT_high_pc(0x00)
    1005                            .dwattr $C$DW$134, DW_AT_TI_symbol_name("DummyPrintf")
    1006                            .dwattr $C$DW$134, DW_AT_TI_begin_file("/vagrant/2022_Q1_14_2_22/sdk_root/source/ti/drivers/ne
    1007                            .dwattr $C$DW$134, DW_AT_TI_begin_line(0x115)
    1008                            .dwattr $C$DW$134, DW_AT_TI_begin_column(0x0d)
    1009                            .dwattr $C$DW$134, DW_AT_decl_file("/vagrant/2022_Q1_14_2_22/sdk_root/source/ti/drivers/net/wi
    1010                            .dwattr $C$DW$134, DW_AT_decl_line(0x115)
    1011                            .dwattr $C$DW$134, DW_AT_decl_column(0x0d)
    1012                            .dwattr $C$DW$134, DW_AT_TI_max_frame_size(0x10)
    1013                            .dwpsn  file "/vagrant/2022_Q1_14_2_22/sdk_root/source/ti/drivers/net/wifi/slnetif/slwificonn.
    1014                    
    1015                            .dwfde $C$DW$CIE, DummyPrintf
    1016                    $C$DW$135       .dwtag  DW_TAG_formal_parameter
    1017                            .dwattr $C$DW$135, DW_AT_name("pFormat")
    1018                            .dwattr $C$DW$135, DW_AT_TI_symbol_name("pFormat")
    1019                            .dwattr $C$DW$135, DW_AT_type(*$C$DW$T$490)
    1020                            .dwattr $C$DW$135, DW_AT_location[DW_OP_breg13 0]
    1021                    $C$DW$136       .dwtag  DW_TAG_unspecified_parameters
    1022                    
    1023                    
    1024                    
    1025                    ;*****************************************************************************
    1026                    ;* FUNCTION NAME: DummyPrintf                                                *
    1027                    ;*                                                                           *
    1028                    ;*   Regs Modified     : SP                                                  *
    1029                    ;*   Regs Used         : A1,A2,A3,A4,SP,LR                                   *
    1030                    ;*   Local Frame Size  : 0 Args + 0 Auto + 0 Save = 0 byte                   *
    1031                    ;*****************************************************************************
    1032 00000000           DummyPrintf:
    1033                    ;* --------------------------------------------------------------------------*
    1034                            .dwcfi  cfa_offset, 0
    1035 00000000 B40F              PUSH      {A1, A2, A3, A4}      ; [DPU_V7M3_PIPE]  ; [ORIG 16-BIT INS]
    1036                            .dwcfi  cfa_offset, 16
    1037                            .dwcfi  save_reg_to_mem, 3, -4
    1038                            .dwcfi  save_reg_to_mem, 2, -8
    1039                            .dwcfi  save_reg_to_mem, 1, -12
    1040                            .dwcfi  save_reg_to_mem, 0, -16
    1041                            .dwpsn  file "/vagrant/2022_Q1_14_2_22/sdk_root/source/ti/drivers/net/wifi/slnetif/slwificonn.
    1042                    ;----------------------------------------------------------------------
    1043                    ; 277 | static void DummyPrintf(const char *pFormat, ...) {};                  
    1044                    ;----------------------------------------------------------------------
    1045 00000002 B004              ADD       SP, SP, #16           ; [DPU_V7M3_PIPE]  ; [ORIG 16-BIT INS]
TI ARM Assembler Unix v20.2.5 Sun Mar 27 17:11:53 2022

Copyright (c) 1996-2018 Texas Instruments Incorporated
slwificonn.asm                                                       PAGE   20

    1046                            .dwcfi  cfa_offset, 0
    1047                    $C$DW$137       .dwtag  DW_TAG_TI_branch
    1048                            .dwattr $C$DW$137, DW_AT_low_pc(0x00)
    1049                            .dwattr $C$DW$137, DW_AT_TI_return
    1050                    
    1051 00000004 4770              BX        LR                    ; [DPU_V7M3_PIPE]  ; [ORIG 16-BIT INS]
    1052                            ; BRANCH OCCURS                  ; [] 
    1053                            .dwattr $C$DW$134, DW_AT_TI_end_file("/vagrant/2022_Q1_14_2_22/sdk_root/source/ti/drivers/net/
    1054                            .dwattr $C$DW$134, DW_AT_TI_end_line(0x115)
    1055                            .dwattr $C$DW$134, DW_AT_TI_end_column(0x34)
    1056                            .dwendentry
    1057                            .dwendtag $C$DW$134
    1058                    
    1059 00000000                   .sect   ".text:DeferredEvent_enqueue"
    1060                            .clink
    1061                            .thumbfunc DeferredEvent_enqueue
    1062 00000000                   .thumb
    1063                    
    1064                    $C$DW$138       .dwtag  DW_TAG_subprogram
    1065                            .dwattr $C$DW$138, DW_AT_name("DeferredEvent_enqueue")
    1066                            .dwattr $C$DW$138, DW_AT_low_pc(DeferredEvent_enqueue)
    1067                            .dwattr $C$DW$138, DW_AT_high_pc(0x00)
    1068                            .dwattr $C$DW$138, DW_AT_TI_symbol_name("DeferredEvent_enqueue")
    1069                            .dwattr $C$DW$138, DW_AT_type(*$C$DW$T$10)
    1070                            .dwattr $C$DW$138, DW_AT_TI_begin_file("/vagrant/2022_Q1_14_2_22/sdk_root/source/ti/drivers/ne
    1071                            .dwattr $C$DW$138, DW_AT_TI_begin_line(0x147)
    1072                            .dwattr $C$DW$138, DW_AT_TI_begin_column(0x0c)
    1073                            .dwattr $C$DW$138, DW_AT_decl_file("/vagrant/2022_Q1_14_2_22/sdk_root/source/ti/drivers/net/wi
    1074                            .dwattr $C$DW$138, DW_AT_decl_line(0x147)
    1075                            .dwattr $C$DW$138, DW_AT_decl_column(0x0c)
    1076                            .dwattr $C$DW$138, DW_AT_TI_max_frame_size(0x18)
    1077                            .dwpsn  file "/vagrant/2022_Q1_14_2_22/sdk_root/source/ti/drivers/net/wifi/slnetif/slwificonn.
    1078                    
    1079                            .dwfde $C$DW$CIE, DeferredEvent_enqueue
    1080                    $C$DW$139       .dwtag  DW_TAG_formal_parameter
    1081                            .dwattr $C$DW$139, DW_AT_name("event")
    1082                            .dwattr $C$DW$139, DW_AT_TI_symbol_name("event")
    1083                            .dwattr $C$DW$139, DW_AT_type(*$C$DW$T$10)
    1084                            .dwattr $C$DW$139, DW_AT_location[DW_OP_reg0]
    1085                    
    1086                    $C$DW$140       .dwtag  DW_TAG_formal_parameter
    1087                            .dwattr $C$DW$140, DW_AT_name("pParams")
    1088                            .dwattr $C$DW$140, DW_AT_TI_symbol_name("pParams")
    1089                            .dwattr $C$DW$140, DW_AT_type(*$C$DW$T$3)
    1090                            .dwattr $C$DW$140, DW_AT_location[DW_OP_reg1]
    1091                    
    1092                    ;----------------------------------------------------------------------
    1093                    ; 327 | static int DeferredEvent_enqueue(SLWIFICONN_EVENT_e event, void *pParam
    1094                    ;     | s)                                                                     
    1095                    ;----------------------------------------------------------------------
    1096                    
    1097                    ;*****************************************************************************
    1098                    ;* FUNCTION NAME: DeferredEvent_enqueue                                      *
    1099                    ;*                                                                           *
    1100                    ;*   Regs Modified     : A1,A2,A3,A4,V9,SP,LR,SR                             *
TI ARM Assembler Unix v20.2.5 Sun Mar 27 17:11:53 2022

Copyright (c) 1996-2018 Texas Instruments Incorporated
slwificonn.asm                                                       PAGE   21

    1101                    ;*   Regs Used         : A1,A2,A3,A4,V9,SP,LR,SR                             *
    1102                    ;*   Local Frame Size  : 0 Args + 20 Auto + 4 Save = 24 byte                 *
    1103                    ;*****************************************************************************
    1104 00000000           DeferredEvent_enqueue:
    1105                    ;* --------------------------------------------------------------------------*
    1106                            .dwcfi  cfa_offset, 0
    1107 00000000 B500              PUSH      {LR}                  ; [DPU_V7M3_PIPE]  ; [ORIG 16-BIT INS]
    1108                            .dwcfi  cfa_offset, 4
    1109                            .dwcfi  save_reg_to_mem, 14, -4
    1110 00000002 0D14F1AD          SUB       SP, SP, #20           ; [DPU_V7M3_PIPE]  ; [KEEP 32-BIT INS]
    1111                            .dwcfi  cfa_offset, 24
    1112                    $C$DW$141       .dwtag  DW_TAG_variable
    1113                            .dwattr $C$DW$141, DW_AT_name("msg")
    1114                            .dwattr $C$DW$141, DW_AT_TI_symbol_name("msg")
    1115                            .dwattr $C$DW$141, DW_AT_type(*$C$DW$T$691)
    1116                            .dwattr $C$DW$141, DW_AT_location[DW_OP_breg13 0]
    1117                    
    1118                    $C$DW$142       .dwtag  DW_TAG_variable
    1119                            .dwattr $C$DW$142, DW_AT_name("pParams")
    1120                            .dwattr $C$DW$142, DW_AT_TI_symbol_name("pParams")
    1121                            .dwattr $C$DW$142, DW_AT_type(*$C$DW$T$3)
    1122                            .dwattr $C$DW$142, DW_AT_location[DW_OP_breg13 8]
    1123                    
    1124                    $C$DW$143       .dwtag  DW_TAG_variable
    1125                            .dwattr $C$DW$143, DW_AT_name("retVal")
    1126                            .dwattr $C$DW$143, DW_AT_TI_symbol_name("retVal")
    1127                            .dwattr $C$DW$143, DW_AT_type(*$C$DW$T$10)
    1128                            .dwattr $C$DW$143, DW_AT_location[DW_OP_breg13 12]
    1129                    
    1130                    $C$DW$144       .dwtag  DW_TAG_variable
    1131                            .dwattr $C$DW$144, DW_AT_name("event")
    1132                            .dwattr $C$DW$144, DW_AT_TI_symbol_name("event")
    1133                            .dwattr $C$DW$144, DW_AT_type(*$C$DW$T$102)
    1134                            .dwattr $C$DW$144, DW_AT_location[DW_OP_breg13 16]
    1135                    
    1136                    ;----------------------------------------------------------------------
    1137                    ; 329 | int retVal;                                                            
    1138                    ; 330 | DeferredEvent_t msg;                                                   
    1139                    ;----------------------------------------------------------------------
    1140 00000006 9102              STR       A2, [SP, #8]          ; [DPU_V7M3_PIPE] |328|  ; [ORIG 16-BIT INS]
    1141 00000008 0010F88D          STRB      A1, [SP, #16]         ; [DPU_V7M3_PIPE] |328|  ; [KEEP 32-BIT INS]
    1142                            .dwpsn  file "/vagrant/2022_Q1_14_2_22/sdk_root/source/ti/drivers/net/wifi/slnetif/slwificonn.
    1143                    ;----------------------------------------------------------------------
    1144                    ; 331 | msg.event = event;                                                     
    1145                    ;----------------------------------------------------------------------
    1146 0000000c 0010F89D          LDRB      A1, [SP, #16]         ; [DPU_V7M3_PIPE] |331|  ; [KEEP 32-BIT INS]
    1147 00000010 0000F88D          STRB      A1, [SP, #0]          ; [DPU_V7M3_PIPE] |331|  ; [KEEP 32-BIT INS]
    1148                            .dwpsn  file "/vagrant/2022_Q1_14_2_22/sdk_root/source/ti/drivers/net/wifi/slnetif/slwificonn.
    1149                    ;----------------------------------------------------------------------
    1150                    ; 332 | msg.pParams = pParams;                                                 
    1151                    ;----------------------------------------------------------------------
    1152 00000014 9802              LDR       A1, [SP, #8]          ; [DPU_V7M3_PIPE] |332|  ; [ORIG 16-BIT INS]
    1153 00000016 9001              STR       A1, [SP, #4]          ; [DPU_V7M3_PIPE] |332|  ; [ORIG 16-BIT INS]
    1154                            .dwpsn  file "/vagrant/2022_Q1_14_2_22/sdk_root/source/ti/drivers/net/wifi/slnetif/slwificonn.
    1155                    ;----------------------------------------------------------------------
TI ARM Assembler Unix v20.2.5 Sun Mar 27 17:11:53 2022

Copyright (c) 1996-2018 Texas Instruments Incorporated
slwificonn.asm                                                       PAGE   22

    1156                    ; 334 | retVal = mq_send(g_ctx->DeferredEventQ, (char *)&msg, sizeof(DeferredEv
    1157                    ;     | ent_t), 0);                                                            
    1158                    ;----------------------------------------------------------------------
    1159 00000018 482B              LDR       A1, $C$CON1           ; [DPU_V7M3_PIPE] |334|  ; [ORIG 16-BIT INS]
    1160 0000001a 6800              LDR       A1, [A1, #0]          ; [DPU_V7M3_PIPE] |334|  ; [ORIG 16-BIT INS]
    1161 0000001c 6880              LDR       A1, [A1, #8]          ; [DPU_V7M3_PIPE] |334|  ; [ORIG 16-BIT INS]
    1162 0000001e 2208              MOVS      A3, #8                ; [DPU_V7M3_PIPE] |334|  ; [ORIG 16-BIT INS]
    1163 00000020 2300              MOVS      A4, #0                ; [DPU_V7M3_PIPE] |334|  ; [ORIG 16-BIT INS]
    1164 00000022 4669              MOV       A2, SP                ; [DPU_V7M3_PIPE] |334|  ; [ORIG 16-BIT INS]
    1165                    $C$DW$145       .dwtag  DW_TAG_TI_branch
    1166                            .dwattr $C$DW$145, DW_AT_low_pc(0x00)
    1167                            .dwattr $C$DW$145, DW_AT_name("mq_send")
    1168                            .dwattr $C$DW$145, DW_AT_TI_call
    1169                    
    1170 00000024 FFFEF7FF!         BL        mq_send               ; [DPU_V7M3_PIPE] |334|  ; [KEEP 32-BIT INS]
    1171                            ; CALL OCCURS {mq_send }         ; [] |334| 
    1172 00000028 9003              STR       A1, [SP, #12]         ; [DPU_V7M3_PIPE] |334|  ; [ORIG 16-BIT INS]
    1173                            .dwpsn  file "/vagrant/2022_Q1_14_2_22/sdk_root/source/ti/drivers/net/wifi/slnetif/slwificonn.
    1174                    ;----------------------------------------------------------------------
    1175                    ; 335 | assert(retVal >= 0);                                                   
    1176                    ;----------------------------------------------------------------------
    1177 0000002a 9903              LDR       A2, [SP, #12]         ; [DPU_V7M3_PIPE] |335|  ; [ORIG 16-BIT INS]
    1178 0000002c 2000              MOVS      A1, #0                ; [DPU_V7M3_PIPE] |335|  ; [ORIG 16-BIT INS]
    1179 0000002e 2900              CMP       A2, #0                ; [DPU_V7M3_PIPE] |335|  ; [ORIG 16-BIT INS]
    1180 00000030 D400              BMI       ||$C$L2||             ; [DPU_V7M3_PIPE] |335|  ; [ORIG 16-BIT INS]
    1181                            ; BRANCHCC OCCURS {||$C$L2||}    ; [] |335| 
    1182                    ;* --------------------------------------------------------------------------*
    1183 00000032 2001              MOVS      A1, #1                ; [DPU_V7M3_PIPE] |335|  ; [ORIG 16-BIT INS]
    1184                    ;* --------------------------------------------------------------------------*
    1185 00000034           ||$C$L2||:    
    1186 00000034 B910              CBNZ      A1, ||$C$L3||         ; []  ; [ORIG 16-BIT INS]
    1187                            ; BRANCHCC OCCURS {||$C$L3||}    ; [] |335| 
    1188                    ;* --------------------------------------------------------------------------*
    1189 00000036 A003              ADR       A1, $C$SL24           ; [DPU_V7M3_PIPE] |335|  ; [ORIG 16-BIT INS]
    1190                    $C$DW$146       .dwtag  DW_TAG_TI_branch
    1191                            .dwattr $C$DW$146, DW_AT_low_pc(0x00)
    1192                            .dwattr $C$DW$146, DW_AT_name("_abort_msg")
    1193                            .dwattr $C$DW$146, DW_AT_TI_call
    1194                    
    1195 00000038 FFFEF7FF!         BL        _abort_msg            ; [DPU_V7M3_PIPE] |335|  ; [KEEP 32-BIT INS]
    1196                            ; CALL OCCURS {_abort_msg }      ; [] |335| 
    1197                    ;* --------------------------------------------------------------------------*
    1198 0000003c           ||$C$L3||:    
    1199                            .dwpsn  file "/vagrant/2022_Q1_14_2_22/sdk_root/source/ti/drivers/net/wifi/slnetif/slwificonn.
    1200                    ;----------------------------------------------------------------------
    1201                    ; 336 | return retVal;                                                         
    1202                    ;----------------------------------------------------------------------
    1203 0000003c 9803              LDR       A1, [SP, #12]         ; [DPU_V7M3_PIPE] |336|  ; [ORIG 16-BIT INS]
    1204                            .dwpsn  file "/vagrant/2022_Q1_14_2_22/sdk_root/source/ti/drivers/net/wifi/slnetif/slwificonn.
    1205 0000003e B005              ADD       SP, SP, #20           ; [DPU_V7M3_PIPE]  ; [ORIG 16-BIT INS]
    1206                            .dwcfi  cfa_offset, 4
    1207                    $C$DW$147       .dwtag  DW_TAG_TI_branch
    1208                            .dwattr $C$DW$147, DW_AT_low_pc(0x00)
    1209                            .dwattr $C$DW$147, DW_AT_TI_return
    1210                    
TI ARM Assembler Unix v20.2.5 Sun Mar 27 17:11:53 2022

Copyright (c) 1996-2018 Texas Instruments Incorporated
slwificonn.asm                                                       PAGE   23

    1211 00000040 BD00              POP       {PC}                  ; [DPU_V7M3_PIPE]  ; [ORIG 16-BIT INS]
    1212                            .dwcfi  cfa_offset, 0
    1213                            ; BRANCH OCCURS                  ; [] 
    1214                            .dwattr $C$DW$138, DW_AT_TI_end_file("/vagrant/2022_Q1_14_2_22/sdk_root/source/ti/drivers/net/
    1215                            .dwattr $C$DW$138, DW_AT_TI_end_line(0x151)
    1216                            .dwattr $C$DW$138, DW_AT_TI_end_column(0x01)
    1217                            .dwendentry
    1218                            .dwendtag $C$DW$138
    1219                    
    1220 00000000                   .sect   ".text:DeferredEvent_dequeue"
    1221                            .clink
    1222                            .thumbfunc DeferredEvent_dequeue
    1223 00000000                   .thumb
    1224                    
    1225                    $C$DW$148       .dwtag  DW_TAG_subprogram
    1226                            .dwattr $C$DW$148, DW_AT_name("DeferredEvent_dequeue")
    1227                            .dwattr $C$DW$148, DW_AT_low_pc(DeferredEvent_dequeue)
    1228                            .dwattr $C$DW$148, DW_AT_high_pc(0x00)
    1229                            .dwattr $C$DW$148, DW_AT_TI_symbol_name("DeferredEvent_dequeue")
    1230                            .dwattr $C$DW$148, DW_AT_type(*$C$DW$T$10)
    1231                            .dwattr $C$DW$148, DW_AT_TI_begin_file("/vagrant/2022_Q1_14_2_22/sdk_root/source/ti/drivers/ne
    1232                            .dwattr $C$DW$148, DW_AT_TI_begin_line(0x158)
    1233                            .dwattr $C$DW$148, DW_AT_TI_begin_column(0x0c)
    1234                            .dwattr $C$DW$148, DW_AT_decl_file("/vagrant/2022_Q1_14_2_22/sdk_root/source/ti/drivers/net/wi
    1235                            .dwattr $C$DW$148, DW_AT_decl_line(0x158)
    1236                            .dwattr $C$DW$148, DW_AT_decl_column(0x0c)
    1237                            .dwattr $C$DW$148, DW_AT_TI_max_frame_size(0x28)
    1238                            .dwpsn  file "/vagrant/2022_Q1_14_2_22/sdk_root/source/ti/drivers/net/wifi/slnetif/slwificonn.
    1239                    
    1240                            .dwfde $C$DW$CIE, DeferredEvent_dequeue
    1241                    $C$DW$149       .dwtag  DW_TAG_formal_parameter
    1242                            .dwattr $C$DW$149, DW_AT_name("pEvent")
    1243                            .dwattr $C$DW$149, DW_AT_TI_symbol_name("pEvent")
    1244                            .dwattr $C$DW$149, DW_AT_type(*$C$DW$T$593)
    1245                            .dwattr $C$DW$149, DW_AT_location[DW_OP_reg0]
    1246                    
    1247                    $C$DW$150       .dwtag  DW_TAG_formal_parameter
    1248                            .dwattr $C$DW$150, DW_AT_name("ppParams")
    1249                            .dwattr $C$DW$150, DW_AT_TI_symbol_name("ppParams")
    1250                            .dwattr $C$DW$150, DW_AT_type(*$C$DW$T$329)
    1251                            .dwattr $C$DW$150, DW_AT_location[DW_OP_reg1]
    1252                    
    1253                    ;----------------------------------------------------------------------
    1254                    ; 344 | static int DeferredEvent_dequeue(SLWIFICONN_EVENT_e *pEvent, void **ppP
    1255                    ;     | arams)                                                                 
    1256                    ;----------------------------------------------------------------------
    1257                    
    1258                    ;*****************************************************************************
    1259                    ;* FUNCTION NAME: DeferredEvent_dequeue                                      *
    1260                    ;*                                                                           *
    1261                    ;*   Regs Modified     : A1,A2,A3,A4,V9,SP,LR,SR                             *
    1262                    ;*   Regs Used         : A1,A2,A3,A4,V9,SP,LR,SR                             *
    1263                    ;*   Local Frame Size  : 0 Args + 36 Auto + 4 Save = 40 byte                 *
    1264                    ;*****************************************************************************
    1265 00000000           DeferredEvent_dequeue:
TI ARM Assembler Unix v20.2.5 Sun Mar 27 17:11:53 2022

Copyright (c) 1996-2018 Texas Instruments Incorporated
slwificonn.asm                                                       PAGE   24

    1266                    ;* --------------------------------------------------------------------------*
    1267                            .dwcfi  cfa_offset, 0
    1268 00000000 B500              PUSH      {LR}                  ; [DPU_V7M3_PIPE]  ; [ORIG 16-BIT INS]
    1269                            .dwcfi  cfa_offset, 4
    1270                            .dwcfi  save_reg_to_mem, 14, -4
    1271 00000002 0D24F1AD          SUB       SP, SP, #36           ; [DPU_V7M3_PIPE]  ; [KEEP 32-BIT INS]
    1272                            .dwcfi  cfa_offset, 40
    1273                    $C$DW$151       .dwtag  DW_TAG_variable
    1274                            .dwattr $C$DW$151, DW_AT_name("msg")
    1275                            .dwattr $C$DW$151, DW_AT_TI_symbol_name("msg")
    1276                            .dwattr $C$DW$151, DW_AT_type(*$C$DW$T$691)
    1277                            .dwattr $C$DW$151, DW_AT_location[DW_OP_breg13 0]
    1278                    
    1279                    $C$DW$152       .dwtag  DW_TAG_variable
    1280                            .dwattr $C$DW$152, DW_AT_name("mqstat")
    1281                            .dwattr $C$DW$152, DW_AT_TI_symbol_name("mqstat")
    1282                            .dwattr $C$DW$152, DW_AT_type(*$C$DW$T$565)
    1283                            .dwattr $C$DW$152, DW_AT_location[DW_OP_breg13 8]
    1284                    
    1285                    $C$DW$153       .dwtag  DW_TAG_variable
    1286                            .dwattr $C$DW$153, DW_AT_name("pEvent")
    1287                            .dwattr $C$DW$153, DW_AT_TI_symbol_name("pEvent")
    1288                            .dwattr $C$DW$153, DW_AT_type(*$C$DW$T$593)
    1289                            .dwattr $C$DW$153, DW_AT_location[DW_OP_breg13 24]
    1290                    
    1291                    $C$DW$154       .dwtag  DW_TAG_variable
    1292                            .dwattr $C$DW$154, DW_AT_name("ppParams")
    1293                            .dwattr $C$DW$154, DW_AT_TI_symbol_name("ppParams")
    1294                            .dwattr $C$DW$154, DW_AT_type(*$C$DW$T$329)
    1295                            .dwattr $C$DW$154, DW_AT_location[DW_OP_breg13 28]
    1296                    
    1297                    $C$DW$155       .dwtag  DW_TAG_variable
    1298                            .dwattr $C$DW$155, DW_AT_name("retVal")
    1299                            .dwattr $C$DW$155, DW_AT_TI_symbol_name("retVal")
    1300                            .dwattr $C$DW$155, DW_AT_type(*$C$DW$T$10)
    1301                            .dwattr $C$DW$155, DW_AT_location[DW_OP_breg13 32]
    1302                    
    1303                    ;----------------------------------------------------------------------
    1304                    ; 346 | int retVal;                                                            
    1305                    ; 347 | DeferredEvent_t msg;                                                   
    1306                    ; 348 | struct mq_attr mqstat;                                                 
    1307                    ;----------------------------------------------------------------------
    1308 00000006 9107              STR       A2, [SP, #28]         ; [DPU_V7M3_PIPE] |345|  ; [ORIG 16-BIT INS]
    1309 00000008 9006              STR       A1, [SP, #24]         ; [DPU_V7M3_PIPE] |345|  ; [ORIG 16-BIT INS]
    1310                            .dwpsn  file "/vagrant/2022_Q1_14_2_22/sdk_root/source/ti/drivers/net/wifi/slnetif/slwificonn.
    1311                    ;----------------------------------------------------------------------
    1312                    ; 350 | retVal = mq_getattr(g_ctx->DeferredEventQ, &mqstat);                   
    1313                    ;----------------------------------------------------------------------
    1314 0000000a 4839              LDR       A1, $C$CON2           ; [DPU_V7M3_PIPE] |350|  ; [ORIG 16-BIT INS]
    1315 0000000c 6800              LDR       A1, [A1, #0]          ; [DPU_V7M3_PIPE] |350|  ; [ORIG 16-BIT INS]
    1316 0000000e 6880              LDR       A1, [A1, #8]          ; [DPU_V7M3_PIPE] |350|  ; [ORIG 16-BIT INS]
    1317 00000010 A902              ADD       A2, SP, #8            ; [DPU_V7M3_PIPE] |350|  ; [ORIG 16-BIT INS]
    1318                    $C$DW$156       .dwtag  DW_TAG_TI_branch
    1319                            .dwattr $C$DW$156, DW_AT_low_pc(0x00)
    1320                            .dwattr $C$DW$156, DW_AT_name("mq_getattr")
TI ARM Assembler Unix v20.2.5 Sun Mar 27 17:11:53 2022

Copyright (c) 1996-2018 Texas Instruments Incorporated
slwificonn.asm                                                       PAGE   25

    1321                            .dwattr $C$DW$156, DW_AT_TI_call
    1322                    
    1323 00000012 FFFEF7FF!         BL        mq_getattr            ; [DPU_V7M3_PIPE] |350|  ; [KEEP 32-BIT INS]
    1324                            ; CALL OCCURS {mq_getattr }      ; [] |350| 
    1325 00000016 9008              STR       A1, [SP, #32]         ; [DPU_V7M3_PIPE] |350|  ; [ORIG 16-BIT INS]
    1326                            .dwpsn  file "/vagrant/2022_Q1_14_2_22/sdk_root/source/ti/drivers/net/wifi/slnetif/slwificonn.
    1327                    ;----------------------------------------------------------------------
    1328                    ; 352 | if(retVal == 0 && mqstat.mq_curmsgs)                                   
    1329                    ;----------------------------------------------------------------------
    1330 00000018 9808              LDR       A1, [SP, #32]         ; [DPU_V7M3_PIPE] |352|  ; [ORIG 16-BIT INS]
    1331 0000001a BB08              CBNZ      A1, ||$C$L7||         ; []  ; [ORIG 16-BIT INS]
    1332                            ; BRANCHCC OCCURS {||$C$L7||}    ; [] |352| 
    1333                    ;* --------------------------------------------------------------------------*
    1334 0000001c 9805              LDR       A1, [SP, #20]         ; [DPU_V7M3_PIPE] |352|  ; [ORIG 16-BIT INS]
    1335 0000001e B1F8              CBZ       A1, ||$C$L7||         ; []  ; [ORIG 16-BIT INS]
    1336                            ; BRANCHCC OCCURS {||$C$L7||}    ; [] |352| 
    1337                    ;* --------------------------------------------------------------------------*
    1338                            .dwpsn  file "/vagrant/2022_Q1_14_2_22/sdk_root/source/ti/drivers/net/wifi/slnetif/slwificonn.
    1339                    ;----------------------------------------------------------------------
    1340                    ; 354 | retVal = mq_receive(g_ctx->DeferredEventQ, (char *)&msg, sizeof(Deferre
    1341                    ;     | dEvent_t), 0);                                                         
    1342                    ;----------------------------------------------------------------------
    1343 00000020 4833              LDR       A1, $C$CON2           ; [DPU_V7M3_PIPE] |354|  ; [ORIG 16-BIT INS]
    1344 00000022 6800              LDR       A1, [A1, #0]          ; [DPU_V7M3_PIPE] |354|  ; [ORIG 16-BIT INS]
    1345 00000024 6880              LDR       A1, [A1, #8]          ; [DPU_V7M3_PIPE] |354|  ; [ORIG 16-BIT INS]
    1346 00000026 4669              MOV       A2, SP                ; [DPU_V7M3_PIPE] |354|  ; [ORIG 16-BIT INS]
    1347 00000028 2208              MOVS      A3, #8                ; [DPU_V7M3_PIPE] |354|  ; [ORIG 16-BIT INS]
    1348 0000002a 2300              MOVS      A4, #0                ; [DPU_V7M3_PIPE] |354|  ; [ORIG 16-BIT INS]
    1349                    $C$DW$157       .dwtag  DW_TAG_TI_branch
    1350                            .dwattr $C$DW$157, DW_AT_low_pc(0x00)
    1351                            .dwattr $C$DW$157, DW_AT_name("mq_receive")
    1352                            .dwattr $C$DW$157, DW_AT_TI_call
    1353                    
    1354 0000002c FFFEF7FF!         BL        mq_receive            ; [DPU_V7M3_PIPE] |354|  ; [KEEP 32-BIT INS]
    1355                            ; CALL OCCURS {mq_receive }      ; [] |354| 
    1356 00000030 9008              STR       A1, [SP, #32]         ; [DPU_V7M3_PIPE] |354|  ; [ORIG 16-BIT INS]
    1357                            .dwpsn  file "/vagrant/2022_Q1_14_2_22/sdk_root/source/ti/drivers/net/wifi/slnetif/slwificonn.
    1358                    ;----------------------------------------------------------------------
    1359                    ; 355 | assert(retVal > 0);                                                    
    1360                    ;----------------------------------------------------------------------
    1361 00000032 9908              LDR       A2, [SP, #32]         ; [DPU_V7M3_PIPE] |355|  ; [ORIG 16-BIT INS]
    1362 00000034 2000              MOVS      A1, #0                ; [DPU_V7M3_PIPE] |355|  ; [ORIG 16-BIT INS]
    1363 00000036 2900              CMP       A2, #0                ; [DPU_V7M3_PIPE] |355|  ; [ORIG 16-BIT INS]
    1364 00000038 DD00              BLE       ||$C$L4||             ; [DPU_V7M3_PIPE] |355|  ; [ORIG 16-BIT INS]
    1365                            ; BRANCHCC OCCURS {||$C$L4||}    ; [] |355| 
    1366                    ;* --------------------------------------------------------------------------*
    1367 0000003a 2001              MOVS      A1, #1                ; [DPU_V7M3_PIPE] |355|  ; [ORIG 16-BIT INS]
    1368                    ;* --------------------------------------------------------------------------*
    1369 0000003c           ||$C$L4||:    
    1370 0000003c B910              CBNZ      A1, ||$C$L5||         ; []  ; [ORIG 16-BIT INS]
    1371                            ; BRANCHCC OCCURS {||$C$L5||}    ; [] |355| 
    1372                    ;* --------------------------------------------------------------------------*
    1373 0000003e A00B              ADR       A1, $C$SL25           ; [DPU_V7M3_PIPE] |355|  ; [ORIG 16-BIT INS]
    1374                    $C$DW$158       .dwtag  DW_TAG_TI_branch
    1375                            .dwattr $C$DW$158, DW_AT_low_pc(0x00)
TI ARM Assembler Unix v20.2.5 Sun Mar 27 17:11:53 2022

Copyright (c) 1996-2018 Texas Instruments Incorporated
slwificonn.asm                                                       PAGE   26

    1376                            .dwattr $C$DW$158, DW_AT_name("_abort_msg")
    1377                            .dwattr $C$DW$158, DW_AT_TI_call
    1378                    
    1379 00000040 FFFEF7FF!         BL        _abort_msg            ; [DPU_V7M3_PIPE] |355|  ; [KEEP 32-BIT INS]
    1380                            ; CALL OCCURS {_abort_msg }      ; [] |355| 
    1381                    ;* --------------------------------------------------------------------------*
    1382 00000044           ||$C$L5||:    
    1383                            .dwpsn  file "/vagrant/2022_Q1_14_2_22/sdk_root/source/ti/drivers/net/wifi/slnetif/slwificonn.
    1384                    ;----------------------------------------------------------------------
    1385                    ; 356 | if(retVal > 0)                                                         
    1386                    ;----------------------------------------------------------------------
    1387 00000044 9808              LDR       A1, [SP, #32]         ; [DPU_V7M3_PIPE] |356|  ; [ORIG 16-BIT INS]
    1388 00000046 2800              CMP       A1, #0                ; [DPU_V7M3_PIPE] |356|  ; [ORIG 16-BIT INS]
    1389 00000048 DD06              BLE       ||$C$L6||             ; [DPU_V7M3_PIPE] |356|  ; [ORIG 16-BIT INS]
    1390                            ; BRANCHCC OCCURS {||$C$L6||}    ; [] |356| 
    1391                    ;* --------------------------------------------------------------------------*
    1392                            .dwpsn  file "/vagrant/2022_Q1_14_2_22/sdk_root/source/ti/drivers/net/wifi/slnetif/slwificonn.
    1393                    ;----------------------------------------------------------------------
    1394                    ; 358 | *pEvent = msg.event;                                                   
    1395                    ;----------------------------------------------------------------------
    1396 0000004a 0000F89D          LDRB      A1, [SP, #0]          ; [DPU_V7M3_PIPE] |358|  ; [KEEP 32-BIT INS]
    1397 0000004e 9906              LDR       A2, [SP, #24]         ; [DPU_V7M3_PIPE] |358|  ; [ORIG 16-BIT INS]
    1398 00000050 7008              STRB      A1, [A2, #0]          ; [DPU_V7M3_PIPE] |358|  ; [ORIG 16-BIT INS]
    1399                            .dwpsn  file "/vagrant/2022_Q1_14_2_22/sdk_root/source/ti/drivers/net/wifi/slnetif/slwificonn.
    1400                    ;----------------------------------------------------------------------
    1401                    ; 359 | *ppParams = msg.pParams;                                               
    1402                    ; 361 | // return number of pending messages (after this one was read)         
    1403                    ;----------------------------------------------------------------------
    1404 00000052 9801              LDR       A1, [SP, #4]          ; [DPU_V7M3_PIPE] |359|  ; [ORIG 16-BIT INS]
    1405 00000054 9907              LDR       A2, [SP, #28]         ; [DPU_V7M3_PIPE] |359|  ; [ORIG 16-BIT INS]
    1406 00000056 6008              STR       A1, [A2, #0]          ; [DPU_V7M3_PIPE] |359|  ; [ORIG 16-BIT INS]
    1407                    ;* --------------------------------------------------------------------------*
    1408 00000058           ||$C$L6||:    
    1409                            .dwpsn  file "/vagrant/2022_Q1_14_2_22/sdk_root/source/ti/drivers/net/wifi/slnetif/slwificonn.
    1410                    ;----------------------------------------------------------------------
    1411                    ; 362 | retVal = mqstat.mq_curmsgs - 1;                                        
    1412                    ; 364 | else                                                                   
    1413                    ;----------------------------------------------------------------------
    1414 00000058 9805              LDR       A1, [SP, #20]         ; [DPU_V7M3_PIPE] |362|  ; [ORIG 16-BIT INS]
    1415 0000005a 1E40              SUBS      A1, A1, #1            ; [DPU_V7M3_PIPE] |362|  ; [ORIG 16-BIT INS]
    1416 0000005c 9008              STR       A1, [SP, #32]         ; [DPU_V7M3_PIPE] |362|  ; [ORIG 16-BIT INS]
    1417 0000005e E002              B         ||$C$L8||             ; [DPU_V7M3_PIPE]  ; [ORIG 16-BIT INS]
    1418                            ; BRANCH OCCURS {||$C$L8||}      ; [] 
    1419                    ;* --------------------------------------------------------------------------*
    1420 00000060           ||$C$L7||:    
    1421                            .dwpsn  file "/vagrant/2022_Q1_14_2_22/sdk_root/source/ti/drivers/net/wifi/slnetif/slwificonn.
    1422                    ;----------------------------------------------------------------------
    1423                    ; 366 | retVal = -1;                                                           
    1424                    ;----------------------------------------------------------------------
    1425 00000060 30FFF04F          MOV       A1, #-1               ; [DPU_V7M3_PIPE] |366|  ; [KEEP 32-BIT INS]
    1426 00000064 9008              STR       A1, [SP, #32]         ; [DPU_V7M3_PIPE] |366|  ; [ORIG 16-BIT INS]
    1427                    ;* --------------------------------------------------------------------------*
    1428 00000066           ||$C$L8||:    
    1429                            .dwpsn  file "/vagrant/2022_Q1_14_2_22/sdk_root/source/ti/drivers/net/wifi/slnetif/slwificonn.
    1430                    ;----------------------------------------------------------------------
TI ARM Assembler Unix v20.2.5 Sun Mar 27 17:11:53 2022

Copyright (c) 1996-2018 Texas Instruments Incorporated
slwificonn.asm                                                       PAGE   27

    1431                    ; 368 | return retVal;                                                         
    1432                    ;----------------------------------------------------------------------
    1433 00000066 9808              LDR       A1, [SP, #32]         ; [DPU_V7M3_PIPE] |368|  ; [ORIG 16-BIT INS]
    1434                            .dwpsn  file "/vagrant/2022_Q1_14_2_22/sdk_root/source/ti/drivers/net/wifi/slnetif/slwificonn.
    1435 00000068 B009              ADD       SP, SP, #36           ; [DPU_V7M3_PIPE]  ; [ORIG 16-BIT INS]
    1436                            .dwcfi  cfa_offset, 4
    1437                    $C$DW$159       .dwtag  DW_TAG_TI_branch
    1438                            .dwattr $C$DW$159, DW_AT_low_pc(0x00)
    1439                            .dwattr $C$DW$159, DW_AT_TI_return
    1440                    
    1441 0000006a BD00              POP       {PC}                  ; [DPU_V7M3_PIPE]  ; [ORIG 16-BIT INS]
    1442                            .dwcfi  cfa_offset, 0
    1443                            ; BRANCH OCCURS                  ; [] 
    1444                            .dwattr $C$DW$148, DW_AT_TI_end_file("/vagrant/2022_Q1_14_2_22/sdk_root/source/ti/drivers/net/
    1445                            .dwattr $C$DW$148, DW_AT_TI_end_line(0x171)
    1446                            .dwattr $C$DW$148, DW_AT_TI_end_column(0x01)
    1447                            .dwendentry
    1448                            .dwendtag $C$DW$148
    1449                    
    1450 00000000                   .sect   ".text:NonPersistentProfile_process"
    1451                            .clink
    1452                            .thumbfunc NonPersistentProfile_process
    1453 00000000                   .thumb
    1454                    
    1455                    $C$DW$160       .dwtag  DW_TAG_subprogram
    1456                            .dwattr $C$DW$160, DW_AT_name("NonPersistentProfile_process")
    1457                            .dwattr $C$DW$160, DW_AT_low_pc(NonPersistentProfile_process)
    1458                            .dwattr $C$DW$160, DW_AT_high_pc(0x00)
    1459                            .dwattr $C$DW$160, DW_AT_TI_symbol_name("NonPersistentProfile_process")
    1460                            .dwattr $C$DW$160, DW_AT_type(*$C$DW$T$10)
    1461                            .dwattr $C$DW$160, DW_AT_TI_begin_file("/vagrant/2022_Q1_14_2_22/sdk_root/source/ti/drivers/ne
    1462                            .dwattr $C$DW$160, DW_AT_TI_begin_line(0x179)
    1463                            .dwattr $C$DW$160, DW_AT_TI_begin_column(0x0c)
    1464                            .dwattr $C$DW$160, DW_AT_decl_file("/vagrant/2022_Q1_14_2_22/sdk_root/source/ti/drivers/net/wi
    1465                            .dwattr $C$DW$160, DW_AT_decl_line(0x179)
    1466                            .dwattr $C$DW$160, DW_AT_decl_column(0x0c)
    1467                            .dwattr $C$DW$160, DW_AT_TI_max_frame_size(0x20)
    1468                            .dwpsn  file "/vagrant/2022_Q1_14_2_22/sdk_root/source/ti/drivers/net/wifi/slnetif/slwificonn.
    1469                    
    1470                            .dwfde $C$DW$CIE, NonPersistentProfile_process
    1471                    $C$DW$161       .dwtag  DW_TAG_formal_parameter
    1472                            .dwattr $C$DW$161, DW_AT_name("bWlanDisconnect")
    1473                            .dwattr $C$DW$161, DW_AT_TI_symbol_name("bWlanDisconnect")
    1474                            .dwattr $C$DW$161, DW_AT_type(*$C$DW$T$10)
    1475                            .dwattr $C$DW$161, DW_AT_location[DW_OP_reg0]
    1476                    
    1477                    ;----------------------------------------------------------------------
    1478                    ; 377 | static int NonPersistentProfile_process(bool bWlanDisconnect)          
    1479                    ;----------------------------------------------------------------------
    1480                    
    1481                    ;*****************************************************************************
    1482                    ;* FUNCTION NAME: NonPersistentProfile_process                               *
    1483                    ;*                                                                           *
    1484                    ;*   Regs Modified     : A1,A2,A3,A4,V9,SP,LR,SR                             *
    1485                    ;*   Regs Used         : A1,A2,A3,A4,V9,SP,LR,SR                             *
TI ARM Assembler Unix v20.2.5 Sun Mar 27 17:11:53 2022

Copyright (c) 1996-2018 Texas Instruments Incorporated
slwificonn.asm                                                       PAGE   28

    1486                    ;*   Local Frame Size  : 4 Args + 20 Auto + 4 Save = 28 byte                 *
    1487                    ;*****************************************************************************
    1488 00000000           NonPersistentProfile_process:
    1489                    ;* --------------------------------------------------------------------------*
    1490                            .dwcfi  cfa_offset, 0
    1491 00000000 B500              PUSH      {LR}                  ; [DPU_V7M3_PIPE]  ; [ORIG 16-BIT INS]
    1492                            .dwcfi  cfa_offset, 4
    1493                            .dwcfi  save_reg_to_mem, 14, -4
    1494 00000002 0D1CF1AD          SUB       SP, SP, #28           ; [DPU_V7M3_PIPE]  ; [KEEP 32-BIT INS]
    1495                            .dwcfi  cfa_offset, 32
    1496                    $C$DW$162       .dwtag  DW_TAG_variable
    1497                            .dwattr $C$DW$162, DW_AT_name("retVal")
    1498                            .dwattr $C$DW$162, DW_AT_TI_symbol_name("retVal")
    1499                            .dwattr $C$DW$162, DW_AT_type(*$C$DW$T$10)
    1500                            .dwattr $C$DW$162, DW_AT_location[DW_OP_breg13 4]
    1501                    
    1502                    $C$DW$163       .dwtag  DW_TAG_variable
    1503                            .dwattr $C$DW$163, DW_AT_name("bWlanDisconnect")
    1504                            .dwattr $C$DW$163, DW_AT_TI_symbol_name("bWlanDisconnect")
    1505                            .dwattr $C$DW$163, DW_AT_type(*$C$DW$T$94)
    1506                            .dwattr $C$DW$163, DW_AT_location[DW_OP_breg13 8]
    1507                    
    1508 00000006 0008F88D          STRB      A1, [SP, #8]          ; [DPU_V7M3_PIPE] |378|  ; [KEEP 32-BIT INS]
    1509                            .dwpsn  file "/vagrant/2022_Q1_14_2_22/sdk_root/source/ti/drivers/net/wifi/slnetif/slwificonn.
    1510                    ;----------------------------------------------------------------------
    1511                    ; 379 | int retVal = 0;                                                        
    1512                    ;----------------------------------------------------------------------
    1513 0000000a 2000              MOVS      A1, #0                ; [DPU_V7M3_PIPE] |379|  ; [ORIG 16-BIT INS]
    1514 0000000c 9001              STR       A1, [SP, #4]          ; [DPU_V7M3_PIPE] |379|  ; [ORIG 16-BIT INS]
    1515                            .dwpsn  file "/vagrant/2022_Q1_14_2_22/sdk_root/source/ti/drivers/net/wifi/slnetif/slwificonn.
    1516                    ;----------------------------------------------------------------------
    1517                    ; 381 | if(bWlanDisconnect)                                                    
    1518                    ;----------------------------------------------------------------------
    1519 0000000e 0008F89D          LDRB      A1, [SP, #8]          ; [DPU_V7M3_PIPE] |381|  ; [KEEP 32-BIT INS]
    1520 00000012 B140              CBZ       A1, ||$C$L9||         ; []  ; [ORIG 16-BIT INS]
    1521                            ; BRANCHCC OCCURS {||$C$L9||}    ; [] |381| 
    1522                    ;* --------------------------------------------------------------------------*
    1523                            .dwpsn  file "/vagrant/2022_Q1_14_2_22/sdk_root/source/ti/drivers/net/wifi/slnetif/slwificonn.
    1524                    ;----------------------------------------------------------------------
    1525                    ; 383 | retVal = sl_WlanDisconnect();                                          
    1526                    ;----------------------------------------------------------------------
    1527                    $C$DW$164       .dwtag  DW_TAG_TI_branch
    1528                            .dwattr $C$DW$164, DW_AT_low_pc(0x00)
    1529                            .dwattr $C$DW$164, DW_AT_name("sl_WlanDisconnect")
    1530                            .dwattr $C$DW$164, DW_AT_TI_call
    1531                    
    1532 00000014 FFFEF7FF!         BL        sl_WlanDisconnect     ; [DPU_V7M3_PIPE] |383|  ; [KEEP 32-BIT INS]
    1533                            ; CALL OCCURS {sl_WlanDisconnect }  ; [] |383| 
    1534 00000018 9001              STR       A1, [SP, #4]          ; [DPU_V7M3_PIPE] |383|  ; [ORIG 16-BIT INS]
    1535                            .dwpsn  file "/vagrant/2022_Q1_14_2_22/sdk_root/source/ti/drivers/net/wifi/slnetif/slwificonn.
    1536                    ;----------------------------------------------------------------------
    1537                    ; 384 | g_ctx->bWlanConnectUsed = false;                                       
    1538                    ; 387 | else                                                                   
    1539                    ;----------------------------------------------------------------------
    1540 0000001a 483B              LDR       A1, $C$CON3           ; [DPU_V7M3_PIPE] |384|  ; [ORIG 16-BIT INS]
TI ARM Assembler Unix v20.2.5 Sun Mar 27 17:11:53 2022

Copyright (c) 1996-2018 Texas Instruments Incorporated
slwificonn.asm                                                       PAGE   29

    1541 0000001c 6800              LDR       A1, [A1, #0]          ; [DPU_V7M3_PIPE] |384|  ; [ORIG 16-BIT INS]
    1542 0000001e 2100              MOVS      A2, #0                ; [DPU_V7M3_PIPE] |384|  ; [ORIG 16-BIT INS]
    1543 00000020 1074F880          STRB      A2, [A1, #116]        ; [DPU_V7M3_PIPE] |384|  ; [KEEP 32-BIT INS]
    1544 00000024 E02D              B         ||$C$L14||            ; [DPU_V7M3_PIPE]  ; [ORIG 16-BIT INS]
    1545                            ; BRANCH OCCURS {||$C$L14||}     ; [] 
    1546                    ;* --------------------------------------------------------------------------*
    1547                    ||$C$L9||:    
    1548                    
    1549                    $C$DW$165       .dwtag  DW_TAG_lexical_block
    1550                            .dwattr $C$DW$165, DW_AT_low_pc(0x00)
    1551                            .dwattr $C$DW$165, DW_AT_high_pc(0x00)
    1552                    $C$DW$166       .dwtag  DW_TAG_variable
    1553                            .dwattr $C$DW$166, DW_AT_name("pProf")
    1554                            .dwattr $C$DW$166, DW_AT_TI_symbol_name("pProf")
    1555                            .dwattr $C$DW$166, DW_AT_type(*$C$DW$T$99)
    1556                            .dwattr $C$DW$166, DW_AT_location[DW_OP_breg13 12]
    1557                    
    1558                            .dwpsn  file "/vagrant/2022_Q1_14_2_22/sdk_root/source/ti/drivers/net/wifi/slnetif/slwificonn.
    1559                    ;----------------------------------------------------------------------
    1560                    ; 389 | profile_t *pProf = (profile_t *)g_ctx->pNonPersistentProfile;          
    1561                    ;----------------------------------------------------------------------
    1562 00000026 4838              LDR       A1, $C$CON3           ; [DPU_V7M3_PIPE] |389|  ; [ORIG 16-BIT INS]
    1563 00000028 6800              LDR       A1, [A1, #0]          ; [DPU_V7M3_PIPE] |389|  ; [ORIG 16-BIT INS]
    1564 0000002a 6F00              LDR       A1, [A1, #112]        ; [DPU_V7M3_PIPE] |389|  ; [ORIG 16-BIT INS]
    1565 0000002c 9003              STR       A1, [SP, #12]         ; [DPU_V7M3_PIPE] |389|  ; [ORIG 16-BIT INS]
    1566                            .dwpsn  file "/vagrant/2022_Q1_14_2_22/sdk_root/source/ti/drivers/net/wifi/slnetif/slwificonn.
    1567                    ;----------------------------------------------------------------------
    1568                    ; 391 | if(pProf)                                                              
    1569                    ;----------------------------------------------------------------------
    1570 0000002e 9803              LDR       A1, [SP, #12]         ; [DPU_V7M3_PIPE] |391|  ; [ORIG 16-BIT INS]
    1571 00000030 2800              CMP       A1, #0                ; [DPU_V7M3_PIPE] |391|  ; [ORIG 16-BIT INS]
    1572 00000032 D026              BEQ       ||$C$L13||            ; [DPU_V7M3_PIPE] |391|  ; [ORIG 16-BIT INS]
    1573                            ; BRANCHCC OCCURS {||$C$L13||}   ; [] |391| 
    1574                    ;* --------------------------------------------------------------------------*
    1575                    
    1576                    $C$DW$167       .dwtag  DW_TAG_lexical_block
    1577                            .dwattr $C$DW$167, DW_AT_low_pc(0x00)
    1578                            .dwattr $C$DW$167, DW_AT_high_pc(0x00)
    1579                    $C$DW$168       .dwtag  DW_TAG_variable
    1580                            .dwattr $C$DW$168, DW_AT_name("pBssid")
    1581                            .dwattr $C$DW$168, DW_AT_TI_symbol_name("pBssid")
    1582                            .dwattr $C$DW$168, DW_AT_type(*$C$DW$T$486)
    1583                            .dwattr $C$DW$168, DW_AT_location[DW_OP_breg13 16]
    1584                    
    1585                    $C$DW$169       .dwtag  DW_TAG_variable
    1586                            .dwattr $C$DW$169, DW_AT_name("pSecParamsExt")
    1587                            .dwattr $C$DW$169, DW_AT_TI_symbol_name("pSecParamsExt")
    1588                            .dwattr $C$DW$169, DW_AT_type(*$C$DW$T$681)
    1589                            .dwattr $C$DW$169, DW_AT_location[DW_OP_breg13 20]
    1590                    
    1591                            .dwpsn  file "/vagrant/2022_Q1_14_2_22/sdk_root/source/ti/drivers/net/wifi/slnetif/slwificonn.
    1592                    ;----------------------------------------------------------------------
    1593                    ; 393 | uint8_t *pBssid = NULL;                                                
    1594                    ;----------------------------------------------------------------------
    1595 00000034 2000              MOVS      A1, #0                ; [DPU_V7M3_PIPE] |393|  ; [ORIG 16-BIT INS]
TI ARM Assembler Unix v20.2.5 Sun Mar 27 17:11:53 2022

Copyright (c) 1996-2018 Texas Instruments Incorporated
slwificonn.asm                                                       PAGE   30

    1596 00000036 9004              STR       A1, [SP, #16]         ; [DPU_V7M3_PIPE] |393|  ; [ORIG 16-BIT INS]
    1597                            .dwpsn  file "/vagrant/2022_Q1_14_2_22/sdk_root/source/ti/drivers/net/wifi/slnetif/slwificonn.
    1598                    ;----------------------------------------------------------------------
    1599                    ; 394 | SlWlanSecParamsExt_t *pSecParamsExt = NULL;                            
    1600                    ;----------------------------------------------------------------------
    1601 00000038 2000              MOVS      A1, #0                ; [DPU_V7M3_PIPE] |394|  ; [ORIG 16-BIT INS]
    1602 0000003a 9005              STR       A1, [SP, #20]         ; [DPU_V7M3_PIPE] |394|  ; [ORIG 16-BIT INS]
    1603                            .dwpsn  file "/vagrant/2022_Q1_14_2_22/sdk_root/source/ti/drivers/net/wifi/slnetif/slwificonn.
    1604                    ;----------------------------------------------------------------------
    1605                    ; 395 | assert(pProf);                                                         
    1606                    ;----------------------------------------------------------------------
    1607 0000003c 9803              LDR       A1, [SP, #12]         ; [DPU_V7M3_PIPE] |395|  ; [ORIG 16-BIT INS]
    1608 0000003e B910              CBNZ      A1, ||$C$L10||        ; []  ; [ORIG 16-BIT INS]
    1609                            ; BRANCHCC OCCURS {||$C$L10||}   ; [] |395| 
    1610                    ;* --------------------------------------------------------------------------*
    1611 00000040 A011              ADR       A1, $C$SL26           ; [DPU_V7M3_PIPE] |395|  ; [ORIG 16-BIT INS]
    1612                    $C$DW$170       .dwtag  DW_TAG_TI_branch
    1613                            .dwattr $C$DW$170, DW_AT_low_pc(0x00)
    1614                            .dwattr $C$DW$170, DW_AT_name("_abort_msg")
    1615                            .dwattr $C$DW$170, DW_AT_TI_call
    1616                    
    1617 00000042 FFFEF7FF!         BL        _abort_msg            ; [DPU_V7M3_PIPE] |395|  ; [KEEP 32-BIT INS]
    1618                            ; CALL OCCURS {_abort_msg }      ; [] |395| 
    1619                    ;* --------------------------------------------------------------------------*
    1620 00000046           ||$C$L10||:    
    1621                            .dwpsn  file "/vagrant/2022_Q1_14_2_22/sdk_root/source/ti/drivers/net/wifi/slnetif/slwificonn.
    1622                    ;----------------------------------------------------------------------
    1623                    ; 396 | if(pProf->bSetBssid)                                                   
    1624                    ;----------------------------------------------------------------------
    1625 00000046 9803              LDR       A1, [SP, #12]         ; [DPU_V7M3_PIPE] |396|  ; [ORIG 16-BIT INS]
    1626 00000048 7840              LDRB      A1, [A1, #1]          ; [DPU_V7M3_PIPE] |396|  ; [ORIG 16-BIT INS]
    1627 0000004a B110              CBZ       A1, ||$C$L11||        ; []  ; [ORIG 16-BIT INS]
    1628                            ; BRANCHCC OCCURS {||$C$L11||}   ; [] |396| 
    1629                    ;* --------------------------------------------------------------------------*
    1630                            .dwpsn  file "/vagrant/2022_Q1_14_2_22/sdk_root/source/ti/drivers/net/wifi/slnetif/slwificonn.
    1631                    ;----------------------------------------------------------------------
    1632                    ; 398 | pBssid = pProf->bssid;                                                 
    1633                    ;----------------------------------------------------------------------
    1634 0000004c 9803              LDR       A1, [SP, #12]         ; [DPU_V7M3_PIPE] |398|  ; [ORIG 16-BIT INS]
    1635 0000004e 1C80              ADDS      A1, A1, #2            ; [DPU_V7M3_PIPE] |398|  ; [ORIG 16-BIT INS]
    1636 00000050 9004              STR       A1, [SP, #16]         ; [DPU_V7M3_PIPE] |398|  ; [ORIG 16-BIT INS]
    1637                    ;* --------------------------------------------------------------------------*
    1638 00000052           ||$C$L11||:    
    1639                            .dwpsn  file "/vagrant/2022_Q1_14_2_22/sdk_root/source/ti/drivers/net/wifi/slnetif/slwificonn.
    1640                    ;----------------------------------------------------------------------
    1641                    ; 400 | if(pProf->secParams.Type == SL_WLAN_SEC_TYPE_WPA_ENT)                  
    1642                    ;----------------------------------------------------------------------
    1643 00000052 9803              LDR       A1, [SP, #12]         ; [DPU_V7M3_PIPE] |400|  ; [ORIG 16-BIT INS]
    1644 00000054 7A00              LDRB      A1, [A1, #8]          ; [DPU_V7M3_PIPE] |400|  ; [ORIG 16-BIT INS]
    1645 00000056 2805              CMP       A1, #5                ; [DPU_V7M3_PIPE] |400|  ; [ORIG 16-BIT INS]
    1646 00000058 D102              BNE       ||$C$L12||            ; [DPU_V7M3_PIPE] |400|  ; [ORIG 16-BIT INS]
    1647                            ; BRANCHCC OCCURS {||$C$L12||}   ; [] |400| 
    1648                    ;* --------------------------------------------------------------------------*
    1649                            .dwpsn  file "/vagrant/2022_Q1_14_2_22/sdk_root/source/ti/drivers/net/wifi/slnetif/slwificonn.
    1650                    ;----------------------------------------------------------------------
TI ARM Assembler Unix v20.2.5 Sun Mar 27 17:11:53 2022

Copyright (c) 1996-2018 Texas Instruments Incorporated
slwificonn.asm                                                       PAGE   31

    1651                    ; 402 | pSecParamsExt = &pProf->extSecParams;                                  
    1652                    ;----------------------------------------------------------------------
    1653 0000005a 9803              LDR       A1, [SP, #12]         ; [DPU_V7M3_PIPE] |402|  ; [ORIG 16-BIT INS]
    1654 0000005c 3014              ADDS      A1, A1, #20           ; [DPU_V7M3_PIPE] |402|  ; [ORIG 16-BIT INS]
    1655 0000005e 9005              STR       A1, [SP, #20]         ; [DPU_V7M3_PIPE] |402|  ; [ORIG 16-BIT INS]
    1656                    ;* --------------------------------------------------------------------------*
    1657 00000060           ||$C$L12||:    
    1658                            .dwpsn  file "/vagrant/2022_Q1_14_2_22/sdk_root/source/ti/drivers/net/wifi/slnetif/slwificonn.
    1659                    ;----------------------------------------------------------------------
    1660                    ; 404 | retVal = sl_WlanConnect(PROFILE_SSID(pProf), pProf->ssidLen, pBssid, &p
    1661                    ;     | Prof->secParams, pSecParamsExt);                                       
    1662                    ;----------------------------------------------------------------------
    1663 00000060 9805              LDR       A1, [SP, #20]         ; [DPU_V7M3_PIPE] |404|  ; [ORIG 16-BIT INS]
    1664 00000062 9000              STR       A1, [SP, #0]          ; [DPU_V7M3_PIPE] |404|  ; [ORIG 16-BIT INS]
    1665 00000064 9903              LDR       A2, [SP, #12]         ; [DPU_V7M3_PIPE] |404|  ; [ORIG 16-BIT INS]
    1666 00000066 9B03              LDR       A4, [SP, #12]         ; [DPU_V7M3_PIPE] |404|  ; [ORIG 16-BIT INS]
    1667 00000068 9A04              LDR       A3, [SP, #16]         ; [DPU_V7M3_PIPE] |404|  ; [ORIG 16-BIT INS]
    1668 0000006a 9803              LDR       A1, [SP, #12]         ; [DPU_V7M3_PIPE] |404|  ; [ORIG 16-BIT INS]
    1669 0000006c 7809              LDRB      A2, [A2, #0]          ; [DPU_V7M3_PIPE] |404|  ; [ORIG 16-BIT INS]
    1670 0000006e 3308              ADDS      A4, A4, #8            ; [DPU_V7M3_PIPE] |404|  ; [ORIG 16-BIT INS]
    1671 00000070 302C              ADDS      A1, A1, #44           ; [DPU_V7M3_PIPE] |404|  ; [ORIG 16-BIT INS]
    1672                    $C$DW$171       .dwtag  DW_TAG_TI_branch
    1673                            .dwattr $C$DW$171, DW_AT_low_pc(0x00)
    1674                            .dwattr $C$DW$171, DW_AT_name("sl_WlanConnect")
    1675                            .dwattr $C$DW$171, DW_AT_TI_call
    1676                    
    1677 00000072 FFFEF7FF!         BL        sl_WlanConnect        ; [DPU_V7M3_PIPE] |404|  ; [KEEP 32-BIT INS]
    1678                            ; CALL OCCURS {sl_WlanConnect }  ; [] |404| 
    1679 00000076 9001              STR       A1, [SP, #4]          ; [DPU_V7M3_PIPE] |404|  ; [ORIG 16-BIT INS]
    1680                            .dwpsn  file "/vagrant/2022_Q1_14_2_22/sdk_root/source/ti/drivers/net/wifi/slnetif/slwificonn.
    1681                    ;----------------------------------------------------------------------
    1682                    ; 405 | g_ctx->bWlanConnectUsed = true;                                        
    1683                    ;----------------------------------------------------------------------
    1684 00000078 4823              LDR       A1, $C$CON3           ; [DPU_V7M3_PIPE] |405|  ; [ORIG 16-BIT INS]
    1685 0000007a 6800              LDR       A1, [A1, #0]          ; [DPU_V7M3_PIPE] |405|  ; [ORIG 16-BIT INS]
    1686 0000007c 2101              MOVS      A2, #1                ; [DPU_V7M3_PIPE] |405|  ; [ORIG 16-BIT INS]
    1687 0000007e 1074F880          STRB      A2, [A1, #116]        ; [DPU_V7M3_PIPE] |405|  ; [KEEP 32-BIT INS]
    1688                            .dwendtag $C$DW$167
    1689                    
    1690                    ;* --------------------------------------------------------------------------*
    1691                    ||$C$L13||:    
    1692                            .dwendtag $C$DW$165
    1693                    
    1694                    ;* --------------------------------------------------------------------------*
    1695 00000082           ||$C$L14||:    
    1696                            .dwpsn  file "/vagrant/2022_Q1_14_2_22/sdk_root/source/ti/drivers/net/wifi/slnetif/slwificonn.
    1697                    ;----------------------------------------------------------------------
    1698                    ; 408 | return retVal;                                                         
    1699                    ;----------------------------------------------------------------------
    1700 00000082 9801              LDR       A1, [SP, #4]          ; [DPU_V7M3_PIPE] |408|  ; [ORIG 16-BIT INS]
    1701                            .dwpsn  file "/vagrant/2022_Q1_14_2_22/sdk_root/source/ti/drivers/net/wifi/slnetif/slwificonn.
    1702 00000084 B007              ADD       SP, SP, #28           ; [DPU_V7M3_PIPE]  ; [ORIG 16-BIT INS]
    1703                            .dwcfi  cfa_offset, 4
    1704                    $C$DW$172       .dwtag  DW_TAG_TI_branch
    1705                            .dwattr $C$DW$172, DW_AT_low_pc(0x00)
TI ARM Assembler Unix v20.2.5 Sun Mar 27 17:11:53 2022

Copyright (c) 1996-2018 Texas Instruments Incorporated
slwificonn.asm                                                       PAGE   32

    1706                            .dwattr $C$DW$172, DW_AT_TI_return
    1707                    
    1708 00000086 BD00              POP       {PC}                  ; [DPU_V7M3_PIPE]  ; [ORIG 16-BIT INS]
    1709                            .dwcfi  cfa_offset, 0
    1710                            ; BRANCH OCCURS                  ; [] 
    1711                            .dwattr $C$DW$160, DW_AT_TI_end_file("/vagrant/2022_Q1_14_2_22/sdk_root/source/ti/drivers/net/
    1712                            .dwattr $C$DW$160, DW_AT_TI_end_line(0x199)
    1713                            .dwattr $C$DW$160, DW_AT_TI_end_column(0x01)
    1714                            .dwendentry
    1715                            .dwendtag $C$DW$160
    1716                    
    1717 00000000                   .sect   ".text:DeferredEvent_process"
    1718                            .clink
    1719                            .thumbfunc DeferredEvent_process
    1720 00000000                   .thumb
    1721                    
    1722                    $C$DW$173       .dwtag  DW_TAG_subprogram
    1723                            .dwattr $C$DW$173, DW_AT_name("DeferredEvent_process")
    1724                            .dwattr $C$DW$173, DW_AT_low_pc(DeferredEvent_process)
    1725                            .dwattr $C$DW$173, DW_AT_high_pc(0x00)
    1726                            .dwattr $C$DW$173, DW_AT_TI_symbol_name("DeferredEvent_process")
    1727                            .dwattr $C$DW$173, DW_AT_type(*$C$DW$T$10)
    1728                            .dwattr $C$DW$173, DW_AT_TI_begin_file("/vagrant/2022_Q1_14_2_22/sdk_root/source/ti/drivers/ne
    1729                            .dwattr $C$DW$173, DW_AT_TI_begin_line(0x1a0)
    1730                            .dwattr $C$DW$173, DW_AT_TI_begin_column(0x0c)
    1731                            .dwattr $C$DW$173, DW_AT_decl_file("/vagrant/2022_Q1_14_2_22/sdk_root/source/ti/drivers/net/wi
    1732                            .dwattr $C$DW$173, DW_AT_decl_line(0x1a0)
    1733                            .dwattr $C$DW$173, DW_AT_decl_column(0x0c)
    1734                            .dwattr $C$DW$173, DW_AT_TI_max_frame_size(0x28)
    1735                            .dwpsn  file "/vagrant/2022_Q1_14_2_22/sdk_root/source/ti/drivers/net/wifi/slnetif/slwificonn.
    1736                    
    1737                            .dwfde $C$DW$CIE, DeferredEvent_process
    1738                    ;----------------------------------------------------------------------
    1739                    ; 416 | static int DeferredEvent_process()                                     
    1740                    ;----------------------------------------------------------------------
    1741                    
    1742                    ;*****************************************************************************
    1743                    ;* FUNCTION NAME: DeferredEvent_process                                      *
    1744                    ;*                                                                           *
    1745                    ;*   Regs Modified     : A1,A2,A3,A4,V9,SP,LR,SR                             *
    1746                    ;*   Regs Used         : A1,A2,A3,A4,V9,SP,LR,SR                             *
    1747                    ;*   Local Frame Size  : 12 Args + 24 Auto + 4 Save = 40 byte                *
    1748                    ;*****************************************************************************
    1749 00000000           DeferredEvent_process:
    1750                    ;* --------------------------------------------------------------------------*
    1751                            .dwcfi  cfa_offset, 0
    1752 00000000 B500              PUSH      {LR}                  ; [DPU_V7M3_PIPE]  ; [ORIG 16-BIT INS]
    1753                            .dwcfi  cfa_offset, 4
    1754                            .dwcfi  save_reg_to_mem, 14, -4
    1755 00000002 0D24F1AD          SUB       SP, SP, #36           ; [DPU_V7M3_PIPE]  ; [KEEP 32-BIT INS]
    1756                            .dwcfi  cfa_offset, 40
    1757                    $C$DW$174       .dwtag  DW_TAG_variable
    1758                            .dwattr $C$DW$174, DW_AT_name("retVal")
    1759                            .dwattr $C$DW$174, DW_AT_TI_symbol_name("retVal")
    1760                            .dwattr $C$DW$174, DW_AT_type(*$C$DW$T$10)
TI ARM Assembler Unix v20.2.5 Sun Mar 27 17:11:53 2022

Copyright (c) 1996-2018 Texas Instruments Incorporated
slwificonn.asm                                                       PAGE   33

    1761                            .dwattr $C$DW$174, DW_AT_location[DW_OP_breg13 12]
    1762                    
    1763                    $C$DW$175       .dwtag  DW_TAG_variable
    1764                            .dwattr $C$DW$175, DW_AT_name("pParams")
    1765                            .dwattr $C$DW$175, DW_AT_TI_symbol_name("pParams")
    1766                            .dwattr $C$DW$175, DW_AT_type(*$C$DW$T$3)
    1767                            .dwattr $C$DW$175, DW_AT_location[DW_OP_breg13 16]
    1768                    
    1769                    $C$DW$176       .dwtag  DW_TAG_variable
    1770                            .dwattr $C$DW$176, DW_AT_name("deferredEvent")
    1771                            .dwattr $C$DW$176, DW_AT_TI_symbol_name("deferredEvent")
    1772                            .dwattr $C$DW$176, DW_AT_type(*$C$DW$T$102)
    1773                            .dwattr $C$DW$176, DW_AT_location[DW_OP_breg13 20]
    1774                    
    1775                            .dwpsn  file "/vagrant/2022_Q1_14_2_22/sdk_root/source/ti/drivers/net/wifi/slnetif/slwificonn.
    1776                    ;----------------------------------------------------------------------
    1777                    ; 418 | int retVal = SL_RET_OBJ_NOT_SET;                                       
    1778                    ; 419 | SLWIFICONN_EVENT_e deferredEvent;                                      
    1779                    ; 420 | void *pParams;                                                         
    1780                    ;----------------------------------------------------------------------
    1781 00000006 4845              LDR       A1, $C$CON4           ; [DPU_V7M3_PIPE] |418|  ; [ORIG 16-BIT INS]
    1782 00000008 9003              STR       A1, [SP, #12]         ; [DPU_V7M3_PIPE] |418|  ; [ORIG 16-BIT INS]
    1783                            .dwpsn  file "/vagrant/2022_Q1_14_2_22/sdk_root/source/ti/drivers/net/wifi/slnetif/slwificonn.
    1784                    ;----------------------------------------------------------------------
    1785                    ; 421 | while (DeferredEvent_dequeue(&deferredEvent, &pParams) >= 0)           
    1786                    ;----------------------------------------------------------------------
    1787 0000000a E03B              B         ||$C$L22||            ; [DPU_V7M3_PIPE] |421|  ; [ORIG 16-BIT INS]
    1788                            ; BRANCH OCCURS {||$C$L22||}     ; [] |421| 
    1789                    ;* --------------------------------------------------------------------------*
    1790                    ||$C$L15||:    
    1791                    
    1792                    $C$DW$177       .dwtag  DW_TAG_lexical_block
    1793                            .dwattr $C$DW$177, DW_AT_low_pc(0x00)
    1794                            .dwattr $C$DW$177, DW_AT_high_pc(0x00)
    1795                            .dwpsn  file "/vagrant/2022_Q1_14_2_22/sdk_root/source/ti/drivers/net/wifi/slnetif/slwificonn.
    1796                    ;----------------------------------------------------------------------
    1797                    ; 423 | if(deferredEvent == SLWIFICONN_EVENT_ADD_PROFILE)                      
    1798                    ;----------------------------------------------------------------------
    1799 0000000c 0014F89D          LDRB      A1, [SP, #20]         ; [DPU_V7M3_PIPE] |423|  ; [KEEP 32-BIT INS]
    1800 00000010 280B              CMP       A1, #11               ; [DPU_V7M3_PIPE] |423|  ; [ORIG 16-BIT INS]
    1801 00000012 D12A              BNE       ||$C$L19||            ; [DPU_V7M3_PIPE] |423|  ; [ORIG 16-BIT INS]
    1802                            ; BRANCHCC OCCURS {||$C$L19||}   ; [] |423| 
    1803                    ;* --------------------------------------------------------------------------*
    1804                    
    1805                    $C$DW$178       .dwtag  DW_TAG_lexical_block
    1806                            .dwattr $C$DW$178, DW_AT_low_pc(0x00)
    1807                            .dwattr $C$DW$178, DW_AT_high_pc(0x00)
    1808                            .dwpsn  file "/vagrant/2022_Q1_14_2_22/sdk_root/source/ti/drivers/net/wifi/slnetif/slwificonn.
    1809                    ;----------------------------------------------------------------------
    1810                    ; 425 | if(pParams)                                                            
    1811                    ;----------------------------------------------------------------------
    1812 00000014 9804              LDR       A1, [SP, #16]         ; [DPU_V7M3_PIPE] |425|  ; [ORIG 16-BIT INS]
    1813 00000016 2800              CMP       A1, #0                ; [DPU_V7M3_PIPE] |425|  ; [ORIG 16-BIT INS]
    1814 00000018 D027              BEQ       ||$C$L18||            ; [DPU_V7M3_PIPE] |425|  ; [ORIG 16-BIT INS]
    1815                            ; BRANCHCC OCCURS {||$C$L18||}   ; [] |425| 
TI ARM Assembler Unix v20.2.5 Sun Mar 27 17:11:53 2022

Copyright (c) 1996-2018 Texas Instruments Incorporated
slwificonn.asm                                                       PAGE   34

    1816                    ;* --------------------------------------------------------------------------*
    1817                    
    1818                    $C$DW$179       .dwtag  DW_TAG_lexical_block
    1819                            .dwattr $C$DW$179, DW_AT_low_pc(0x00)
    1820                            .dwattr $C$DW$179, DW_AT_high_pc(0x00)
    1821                    $C$DW$180       .dwtag  DW_TAG_variable
    1822                            .dwattr $C$DW$180, DW_AT_name("pBssid")
    1823                            .dwattr $C$DW$180, DW_AT_TI_symbol_name("pBssid")
    1824                            .dwattr $C$DW$180, DW_AT_type(*$C$DW$T$486)
    1825                            .dwattr $C$DW$180, DW_AT_location[DW_OP_breg13 24]
    1826                    
    1827                    $C$DW$181       .dwtag  DW_TAG_variable
    1828                            .dwattr $C$DW$181, DW_AT_name("pSecParamsExt")
    1829                            .dwattr $C$DW$181, DW_AT_TI_symbol_name("pSecParamsExt")
    1830                            .dwattr $C$DW$181, DW_AT_type(*$C$DW$T$681)
    1831                            .dwattr $C$DW$181, DW_AT_location[DW_OP_breg13 28]
    1832                    
    1833                    $C$DW$182       .dwtag  DW_TAG_variable
    1834                            .dwattr $C$DW$182, DW_AT_name("pProf")
    1835                            .dwattr $C$DW$182, DW_AT_TI_symbol_name("pProf")
    1836                            .dwattr $C$DW$182, DW_AT_type(*$C$DW$T$99)
    1837                            .dwattr $C$DW$182, DW_AT_location[DW_OP_breg13 32]
    1838                    
    1839                            .dwpsn  file "/vagrant/2022_Q1_14_2_22/sdk_root/source/ti/drivers/net/wifi/slnetif/slwificonn.
    1840                    ;----------------------------------------------------------------------
    1841                    ; 427 | uint8_t *pBssid = NULL;                                                
    1842                    ;----------------------------------------------------------------------
    1843 0000001a 2000              MOVS      A1, #0                ; [DPU_V7M3_PIPE] |427|  ; [ORIG 16-BIT INS]
    1844 0000001c 9006              STR       A1, [SP, #24]         ; [DPU_V7M3_PIPE] |427|  ; [ORIG 16-BIT INS]
    1845                            .dwpsn  file "/vagrant/2022_Q1_14_2_22/sdk_root/source/ti/drivers/net/wifi/slnetif/slwificonn.
    1846                    ;----------------------------------------------------------------------
    1847                    ; 428 | SlWlanSecParamsExt_t *pSecParamsExt = NULL;                            
    1848                    ;----------------------------------------------------------------------
    1849 0000001e 2000              MOVS      A1, #0                ; [DPU_V7M3_PIPE] |428|  ; [ORIG 16-BIT INS]
    1850 00000020 9007              STR       A1, [SP, #28]         ; [DPU_V7M3_PIPE] |428|  ; [ORIG 16-BIT INS]
    1851                            .dwpsn  file "/vagrant/2022_Q1_14_2_22/sdk_root/source/ti/drivers/net/wifi/slnetif/slwificonn.
    1852                    ;----------------------------------------------------------------------
    1853                    ; 429 | profile_t *pProf = (profile_t *)pParams;                               
    1854                    ;----------------------------------------------------------------------
    1855 00000022 9804              LDR       A1, [SP, #16]         ; [DPU_V7M3_PIPE] |429|  ; [ORIG 16-BIT INS]
    1856 00000024 9008              STR       A1, [SP, #32]         ; [DPU_V7M3_PIPE] |429|  ; [ORIG 16-BIT INS]
    1857                            .dwpsn  file "/vagrant/2022_Q1_14_2_22/sdk_root/source/ti/drivers/net/wifi/slnetif/slwificonn.
    1858                    ;----------------------------------------------------------------------
    1859                    ; 430 | if(pProf->bSetBssid)                                                   
    1860                    ;----------------------------------------------------------------------
    1861 00000026 9808              LDR       A1, [SP, #32]         ; [DPU_V7M3_PIPE] |430|  ; [ORIG 16-BIT INS]
    1862 00000028 7840              LDRB      A1, [A1, #1]          ; [DPU_V7M3_PIPE] |430|  ; [ORIG 16-BIT INS]
    1863 0000002a B110              CBZ       A1, ||$C$L16||        ; []  ; [ORIG 16-BIT INS]
    1864                            ; BRANCHCC OCCURS {||$C$L16||}   ; [] |430| 
    1865                    ;* --------------------------------------------------------------------------*
    1866                            .dwpsn  file "/vagrant/2022_Q1_14_2_22/sdk_root/source/ti/drivers/net/wifi/slnetif/slwificonn.
    1867                    ;----------------------------------------------------------------------
    1868                    ; 432 | pBssid = pProf->bssid;                                                 
    1869                    ;----------------------------------------------------------------------
    1870 0000002c 9808              LDR       A1, [SP, #32]         ; [DPU_V7M3_PIPE] |432|  ; [ORIG 16-BIT INS]
TI ARM Assembler Unix v20.2.5 Sun Mar 27 17:11:53 2022

Copyright (c) 1996-2018 Texas Instruments Incorporated
slwificonn.asm                                                       PAGE   35

    1871 0000002e 1C80              ADDS      A1, A1, #2            ; [DPU_V7M3_PIPE] |432|  ; [ORIG 16-BIT INS]
    1872 00000030 9006              STR       A1, [SP, #24]         ; [DPU_V7M3_PIPE] |432|  ; [ORIG 16-BIT INS]
    1873                    ;* --------------------------------------------------------------------------*
    1874 00000032           ||$C$L16||:    
    1875                            .dwpsn  file "/vagrant/2022_Q1_14_2_22/sdk_root/source/ti/drivers/net/wifi/slnetif/slwificonn.
    1876                    ;----------------------------------------------------------------------
    1877                    ; 434 | if(pProf->secParams.Type == SL_WLAN_SEC_TYPE_WPA_ENT)                  
    1878                    ;----------------------------------------------------------------------
    1879 00000032 9808              LDR       A1, [SP, #32]         ; [DPU_V7M3_PIPE] |434|  ; [ORIG 16-BIT INS]
    1880 00000034 7A00              LDRB      A1, [A1, #8]          ; [DPU_V7M3_PIPE] |434|  ; [ORIG 16-BIT INS]
    1881 00000036 2805              CMP       A1, #5                ; [DPU_V7M3_PIPE] |434|  ; [ORIG 16-BIT INS]
    1882 00000038 D102              BNE       ||$C$L17||            ; [DPU_V7M3_PIPE] |434|  ; [ORIG 16-BIT INS]
    1883                            ; BRANCHCC OCCURS {||$C$L17||}   ; [] |434| 
    1884                    ;* --------------------------------------------------------------------------*
    1885                            .dwpsn  file "/vagrant/2022_Q1_14_2_22/sdk_root/source/ti/drivers/net/wifi/slnetif/slwificonn.
    1886                    ;----------------------------------------------------------------------
    1887                    ; 436 | pSecParamsExt = &pProf->extSecParams;                                  
    1888                    ;----------------------------------------------------------------------
    1889 0000003a 9808              LDR       A1, [SP, #32]         ; [DPU_V7M3_PIPE] |436|  ; [ORIG 16-BIT INS]
    1890 0000003c 3014              ADDS      A1, A1, #20           ; [DPU_V7M3_PIPE] |436|  ; [ORIG 16-BIT INS]
    1891 0000003e 9007              STR       A1, [SP, #28]         ; [DPU_V7M3_PIPE] |436|  ; [ORIG 16-BIT INS]
    1892                    ;* --------------------------------------------------------------------------*
    1893 00000040           ||$C$L17||:    
    1894                            .dwpsn  file "/vagrant/2022_Q1_14_2_22/sdk_root/source/ti/drivers/net/wifi/slnetif/slwificonn.
    1895                    ;----------------------------------------------------------------------
    1896                    ; 438 | retVal = sl_WlanProfileAdd(PROFILE_SSID(pProf), pProf->ssidLen, pBssid,
    1897                    ;     |  &pProf->secParams, pSecParamsExt, pProf->priority, 0);                
    1898                    ;----------------------------------------------------------------------
    1899 00000040 9907              LDR       A2, [SP, #28]         ; [DPU_V7M3_PIPE] |438|  ; [ORIG 16-BIT INS]
    1900 00000042 9808              LDR       A1, [SP, #32]         ; [DPU_V7M3_PIPE] |438|  ; [ORIG 16-BIT INS]
    1901 00000044 9100              STR       A2, [SP, #0]          ; [DPU_V7M3_PIPE] |438|  ; [ORIG 16-BIT INS]
    1902 00000046 0028F890          LDRB      A1, [A1, #40]         ; [DPU_V7M3_PIPE] |438|  ; [KEEP 32-BIT INS]
    1903 0000004a 9001              STR       A1, [SP, #4]          ; [DPU_V7M3_PIPE] |438|  ; [ORIG 16-BIT INS]
    1904 0000004c 2000              MOVS      A1, #0                ; [DPU_V7M3_PIPE] |438|  ; [ORIG 16-BIT INS]
    1905 0000004e 9002              STR       A1, [SP, #8]          ; [DPU_V7M3_PIPE] |438|  ; [ORIG 16-BIT INS]
    1906 00000050 9B08              LDR       A4, [SP, #32]         ; [DPU_V7M3_PIPE] |438|  ; [ORIG 16-BIT INS]
    1907 00000052 9908              LDR       A2, [SP, #32]         ; [DPU_V7M3_PIPE] |438|  ; [ORIG 16-BIT INS]
    1908 00000054 9808              LDR       A1, [SP, #32]         ; [DPU_V7M3_PIPE] |438|  ; [ORIG 16-BIT INS]
    1909 00000056 9A06              LDR       A3, [SP, #24]         ; [DPU_V7M3_PIPE] |438|  ; [ORIG 16-BIT INS]
    1910 00000058 7809              LDRB      A2, [A2, #0]          ; [DPU_V7M3_PIPE] |438|  ; [ORIG 16-BIT INS]
    1911 0000005a 3308              ADDS      A4, A4, #8            ; [DPU_V7M3_PIPE] |438|  ; [ORIG 16-BIT INS]
    1912 0000005c 302C              ADDS      A1, A1, #44           ; [DPU_V7M3_PIPE] |438|  ; [ORIG 16-BIT INS]
    1913                    $C$DW$183       .dwtag  DW_TAG_TI_branch
    1914                            .dwattr $C$DW$183, DW_AT_low_pc(0x00)
    1915                            .dwattr $C$DW$183, DW_AT_name("sl_WlanProfileAdd")
    1916                            .dwattr $C$DW$183, DW_AT_TI_call
    1917                    
    1918 0000005e FFFEF7FF!         BL        sl_WlanProfileAdd     ; [DPU_V7M3_PIPE] |438|  ; [KEEP 32-BIT INS]
    1919                            ; CALL OCCURS {sl_WlanProfileAdd }  ; [] |438| 
    1920 00000062 9003              STR       A1, [SP, #12]         ; [DPU_V7M3_PIPE] |438|  ; [ORIG 16-BIT INS]
    1921                            .dwpsn  file "/vagrant/2022_Q1_14_2_22/sdk_root/source/ti/drivers/net/wifi/slnetif/slwificonn.
    1922                    ;----------------------------------------------------------------------
    1923                    ; 439 | free(pProf);                                                           
    1924                    ;----------------------------------------------------------------------
    1925 00000064 9808              LDR       A1, [SP, #32]         ; [DPU_V7M3_PIPE] |439|  ; [ORIG 16-BIT INS]
TI ARM Assembler Unix v20.2.5 Sun Mar 27 17:11:53 2022

Copyright (c) 1996-2018 Texas Instruments Incorporated
slwificonn.asm                                                       PAGE   36

    1926                    $C$DW$184       .dwtag  DW_TAG_TI_branch
    1927                            .dwattr $C$DW$184, DW_AT_low_pc(0x00)
    1928                            .dwattr $C$DW$184, DW_AT_name("free")
    1929                            .dwattr $C$DW$184, DW_AT_TI_call
    1930                    
    1931 00000066 FFFEF7FF!         BL        free                  ; [DPU_V7M3_PIPE] |439|  ; [KEEP 32-BIT INS]
    1932                            ; CALL OCCURS {free }            ; [] |439| 
    1933                            .dwendtag $C$DW$179
    1934                    
    1935                    ;* --------------------------------------------------------------------------*
    1936                    ||$C$L18||:    
    1937                            .dwendtag $C$DW$178
    1938                    
    1939                    ;* --------------------------------------------------------------------------*
    1940 0000006a           ||$C$L19||:    
    1941                            .dwpsn  file "/vagrant/2022_Q1_14_2_22/sdk_root/source/ti/drivers/net/wifi/slnetif/slwificonn.
    1942                    ;----------------------------------------------------------------------
    1943                    ; 442 | retVal = SignalEvent(deferredEvent);                                   
    1944                    ;----------------------------------------------------------------------
    1945 0000006a 0014F89D          LDRB      A1, [SP, #20]         ; [DPU_V7M3_PIPE] |442|  ; [KEEP 32-BIT INS]
    1946                    $C$DW$185       .dwtag  DW_TAG_TI_branch
    1947                            .dwattr $C$DW$185, DW_AT_low_pc(0x00)
    1948                            .dwattr $C$DW$185, DW_AT_name("SignalEvent")
    1949                            .dwattr $C$DW$185, DW_AT_TI_call
    1950                    
    1951 0000006e FFFEF7FF!         BL        SignalEvent           ; [DPU_V7M3_PIPE] |442|  ; [KEEP 32-BIT INS]
    1952                            ; CALL OCCURS {SignalEvent }     ; [] |442| 
    1953 00000072 9003              STR       A1, [SP, #12]         ; [DPU_V7M3_PIPE] |442|  ; [ORIG 16-BIT INS]
    1954                            .dwpsn  file "/vagrant/2022_Q1_14_2_22/sdk_root/source/ti/drivers/net/wifi/slnetif/slwificonn.
    1955                    ;----------------------------------------------------------------------
    1956                    ; 443 | assert(retVal == 0);                                                   
    1957                    ;----------------------------------------------------------------------
    1958 00000074 9903              LDR       A2, [SP, #12]         ; [DPU_V7M3_PIPE] |443|  ; [ORIG 16-BIT INS]
    1959 00000076 2000              MOVS      A1, #0                ; [DPU_V7M3_PIPE] |443|  ; [ORIG 16-BIT INS]
    1960 00000078 B901              CBNZ      A2, ||$C$L20||        ; []  ; [ORIG 16-BIT INS]
    1961                            ; BRANCHCC OCCURS {||$C$L20||}   ; [] |443| 
    1962                    ;* --------------------------------------------------------------------------*
    1963 0000007a 2001              MOVS      A1, #1                ; [DPU_V7M3_PIPE] |443|  ; [ORIG 16-BIT INS]
    1964                    ;* --------------------------------------------------------------------------*
    1965 0000007c           ||$C$L20||:    
    1966 0000007c B910              CBNZ      A1, ||$C$L21||        ; []  ; [ORIG 16-BIT INS]
    1967                            ; BRANCHCC OCCURS {||$C$L21||}   ; [] |443| 
    1968                    ;* --------------------------------------------------------------------------*
    1969 0000007e A006              ADR       A1, $C$SL27           ; [DPU_V7M3_PIPE] |443|  ; [ORIG 16-BIT INS]
    1970                    $C$DW$186       .dwtag  DW_TAG_TI_branch
    1971                            .dwattr $C$DW$186, DW_AT_low_pc(0x00)
    1972                            .dwattr $C$DW$186, DW_AT_name("_abort_msg")
    1973                            .dwattr $C$DW$186, DW_AT_TI_call
    1974                    
    1975 00000080 FFFEF7FF!         BL        _abort_msg            ; [DPU_V7M3_PIPE] |443|  ; [KEEP 32-BIT INS]
    1976                            ; CALL OCCURS {_abort_msg }      ; [] |443| 
    1977                    ;* --------------------------------------------------------------------------*
    1978                    ||$C$L21||:    
    1979                            .dwendtag $C$DW$177
    1980                    
TI ARM Assembler Unix v20.2.5 Sun Mar 27 17:11:53 2022

Copyright (c) 1996-2018 Texas Instruments Incorporated
slwificonn.asm                                                       PAGE   37

    1981                    ;* --------------------------------------------------------------------------*
    1982                    ;*   BEGIN LOOP ||$C$L22||
    1983                    ;* --------------------------------------------------------------------------*
    1984 00000084           ||$C$L22||:    
    1985                            .dwpsn  file "/vagrant/2022_Q1_14_2_22/sdk_root/source/ti/drivers/net/wifi/slnetif/slwificonn.
    1986 00000084 A805              ADD       A1, SP, #20           ; [DPU_V7M3_PIPE] |421|  ; [ORIG 16-BIT INS]
    1987 00000086 A904              ADD       A2, SP, #16           ; [DPU_V7M3_PIPE] |421|  ; [ORIG 16-BIT INS]
    1988                    $C$DW$187       .dwtag  DW_TAG_TI_branch
    1989                            .dwattr $C$DW$187, DW_AT_low_pc(0x00)
    1990                            .dwattr $C$DW$187, DW_AT_name("DeferredEvent_dequeue")
    1991                            .dwattr $C$DW$187, DW_AT_TI_call
    1992                    
    1993 00000088 FFFEF7FF!         BL        DeferredEvent_dequeue ; [DPU_V7M3_PIPE] |421|  ; [KEEP 32-BIT INS]
    1994                            ; CALL OCCURS {DeferredEvent_dequeue }  ; [] |421| 
    1995 0000008c 2800              CMP       A1, #0                ; [DPU_V7M3_PIPE] |421|  ; [ORIG 16-BIT INS]
    1996 0000008e D5BD              BPL       ||$C$L15||            ; [DPU_V7M3_PIPE] |421|  ; [ORIG 16-BIT INS]
    1997                            ; BRANCHCC OCCURS {||$C$L15||}   ; [] |421| 
    1998                    ;* --------------------------------------------------------------------------*
    1999                            .dwpsn  file "/vagrant/2022_Q1_14_2_22/sdk_root/source/ti/drivers/net/wifi/slnetif/slwificonn.
    2000                    ;----------------------------------------------------------------------
    2001                    ; 445 | return retVal;                                                         
    2002                    ;----------------------------------------------------------------------
    2003 00000090 9803              LDR       A1, [SP, #12]         ; [DPU_V7M3_PIPE] |445|  ; [ORIG 16-BIT INS]
    2004                            .dwpsn  file "/vagrant/2022_Q1_14_2_22/sdk_root/source/ti/drivers/net/wifi/slnetif/slwificonn.
    2005 00000092 B009              ADD       SP, SP, #36           ; [DPU_V7M3_PIPE]  ; [ORIG 16-BIT INS]
    2006                            .dwcfi  cfa_offset, 4
    2007                    $C$DW$188       .dwtag  DW_TAG_TI_branch
    2008                            .dwattr $C$DW$188, DW_AT_low_pc(0x00)
    2009                            .dwattr $C$DW$188, DW_AT_TI_return
    2010                    
    2011 00000094 BD00              POP       {PC}                  ; [DPU_V7M3_PIPE]  ; [ORIG 16-BIT INS]
    2012                            .dwcfi  cfa_offset, 0
    2013                            ; BRANCH OCCURS                  ; [] 
    2014                            .dwattr $C$DW$173, DW_AT_TI_end_file("/vagrant/2022_Q1_14_2_22/sdk_root/source/ti/drivers/net/
    2015                            .dwattr $C$DW$173, DW_AT_TI_end_line(0x1be)
    2016                            .dwattr $C$DW$173, DW_AT_TI_end_column(0x01)
    2017                            .dwendentry
    2018                            .dwendtag $C$DW$173
    2019                    
    2020 00000000                   .sect   ".text:ResetNWP"
    2021                            .clink
    2022                            .thumbfunc ResetNWP
    2023 00000000                   .thumb
    2024                    
    2025                    $C$DW$189       .dwtag  DW_TAG_subprogram
    2026                            .dwattr $C$DW$189, DW_AT_name("ResetNWP")
    2027                            .dwattr $C$DW$189, DW_AT_low_pc(ResetNWP)
    2028                            .dwattr $C$DW$189, DW_AT_high_pc(0x00)
    2029                            .dwattr $C$DW$189, DW_AT_TI_symbol_name("ResetNWP")
    2030                            .dwattr $C$DW$189, DW_AT_type(*$C$DW$T$10)
    2031                            .dwattr $C$DW$189, DW_AT_TI_begin_file("/vagrant/2022_Q1_14_2_22/sdk_root/source/ti/drivers/ne
    2032                            .dwattr $C$DW$189, DW_AT_TI_begin_line(0x1c5)
    2033                            .dwattr $C$DW$189, DW_AT_TI_begin_column(0x05)
    2034                            .dwattr $C$DW$189, DW_AT_decl_file("/vagrant/2022_Q1_14_2_22/sdk_root/source/ti/drivers/net/wi
    2035                            .dwattr $C$DW$189, DW_AT_decl_line(0x1c5)
TI ARM Assembler Unix v20.2.5 Sun Mar 27 17:11:53 2022

Copyright (c) 1996-2018 Texas Instruments Incorporated
slwificonn.asm                                                       PAGE   38

    2036                            .dwattr $C$DW$189, DW_AT_decl_column(0x05)
    2037                            .dwattr $C$DW$189, DW_AT_TI_max_frame_size(0x08)
    2038                            .dwpsn  file "/vagrant/2022_Q1_14_2_22/sdk_root/source/ti/drivers/net/wifi/slnetif/slwificonn.
    2039                    
    2040                            .dwfde $C$DW$CIE, ResetNWP
    2041                    ;----------------------------------------------------------------------
    2042                    ; 453 | int ResetNWP()                                                         
    2043                    ;----------------------------------------------------------------------
    2044                    
    2045                    ;*****************************************************************************
    2046                    ;* FUNCTION NAME: ResetNWP                                                   *
    2047                    ;*                                                                           *
    2048                    ;*   Regs Modified     : A1,A2,A3,A4,V9,SP,LR,SR                             *
    2049                    ;*   Regs Used         : A1,A2,A3,A4,V9,SP,LR,SR                             *
    2050                    ;*   Local Frame Size  : 0 Args + 4 Auto + 4 Save = 8 byte                   *
    2051                    ;*****************************************************************************
    2052 00000000           ResetNWP:
    2053                    ;* --------------------------------------------------------------------------*
    2054                            .dwcfi  cfa_offset, 0
    2055 00000000 B508              PUSH      {A4, LR}              ; [DPU_V7M3_PIPE]  ; [ORIG 16-BIT INS]
    2056                            .dwcfi  cfa_offset, 8
    2057                            .dwcfi  save_reg_to_mem, 14, -4
    2058                            .dwcfi  save_reg_to_mem, 3, -8
    2059                    $C$DW$190       .dwtag  DW_TAG_variable
    2060                            .dwattr $C$DW$190, DW_AT_name("retVal")
    2061                            .dwattr $C$DW$190, DW_AT_TI_symbol_name("retVal")
    2062                            .dwattr $C$DW$190, DW_AT_type(*$C$DW$T$10)
    2063                            .dwattr $C$DW$190, DW_AT_location[DW_OP_breg13 0]
    2064                    
    2065                            .dwpsn  file "/vagrant/2022_Q1_14_2_22/sdk_root/source/ti/drivers/net/wifi/slnetif/slwificonn.
    2066                    ;----------------------------------------------------------------------
    2067                    ; 455 | int retVal = sl_Stop(SL_STOP_TIMEOUT);                                 
    2068                    ;----------------------------------------------------------------------
    2069 00000002 20C8              MOVS      A1, #200              ; [DPU_V7M3_PIPE] |455|  ; [ORIG 16-BIT INS]
    2070                    $C$DW$191       .dwtag  DW_TAG_TI_branch
    2071                            .dwattr $C$DW$191, DW_AT_low_pc(0x00)
    2072                            .dwattr $C$DW$191, DW_AT_name("sl_Stop")
    2073                            .dwattr $C$DW$191, DW_AT_TI_call
    2074                    
    2075 00000004 FFFEF7FF!         BL        sl_Stop               ; [DPU_V7M3_PIPE] |455|  ; [KEEP 32-BIT INS]
    2076                            ; CALL OCCURS {sl_Stop }         ; [] |455| 
    2077 00000008 9000              STR       A1, [SP, #0]          ; [DPU_V7M3_PIPE] |455|  ; [ORIG 16-BIT INS]
    2078                            .dwpsn  file "/vagrant/2022_Q1_14_2_22/sdk_root/source/ti/drivers/net/wifi/slnetif/slwificonn.
    2079                    ;----------------------------------------------------------------------
    2080                    ; 456 | assert(retVal == 0);                                                   
    2081                    ;----------------------------------------------------------------------
    2082 0000000a 9900              LDR       A2, [SP, #0]          ; [DPU_V7M3_PIPE] |456|  ; [ORIG 16-BIT INS]
    2083 0000000c 2000              MOVS      A1, #0                ; [DPU_V7M3_PIPE] |456|  ; [ORIG 16-BIT INS]
    2084 0000000e B901              CBNZ      A2, ||$C$L23||        ; []  ; [ORIG 16-BIT INS]
    2085                            ; BRANCHCC OCCURS {||$C$L23||}   ; [] |456| 
    2086                    ;* --------------------------------------------------------------------------*
    2087 00000010 2001              MOVS      A1, #1                ; [DPU_V7M3_PIPE] |456|  ; [ORIG 16-BIT INS]
    2088                    ;* --------------------------------------------------------------------------*
    2089 00000012           ||$C$L23||:    
    2090 00000012 B910              CBNZ      A1, ||$C$L24||        ; []  ; [ORIG 16-BIT INS]
TI ARM Assembler Unix v20.2.5 Sun Mar 27 17:11:53 2022

Copyright (c) 1996-2018 Texas Instruments Incorporated
slwificonn.asm                                                       PAGE   39

    2091                            ; BRANCHCC OCCURS {||$C$L24||}   ; [] |456| 
    2092                    ;* --------------------------------------------------------------------------*
    2093 00000014 A011              ADR       A1, $C$SL28           ; [DPU_V7M3_PIPE] |456|  ; [ORIG 16-BIT INS]
    2094                    $C$DW$192       .dwtag  DW_TAG_TI_branch
    2095                            .dwattr $C$DW$192, DW_AT_low_pc(0x00)
    2096                            .dwattr $C$DW$192, DW_AT_name("_abort_msg")
    2097                            .dwattr $C$DW$192, DW_AT_TI_call
    2098                    
    2099 00000016 FFFEF7FF!         BL        _abort_msg            ; [DPU_V7M3_PIPE] |456|  ; [KEEP 32-BIT INS]
    2100                            ; CALL OCCURS {_abort_msg }      ; [] |456| 
    2101                    ;* --------------------------------------------------------------------------*
    2102 0000001a           ||$C$L24||:    
    2103                            .dwpsn  file "/vagrant/2022_Q1_14_2_22/sdk_root/source/ti/drivers/net/wifi/slnetif/slwificonn.
    2104                    ;----------------------------------------------------------------------
    2105                    ; 458 | retVal = sl_Start(0,0,0);                                              
    2106                    ;----------------------------------------------------------------------
    2107 0000001a 2000              MOVS      A1, #0                ; [DPU_V7M3_PIPE] |458|  ; [ORIG 16-BIT INS]
    2108 0000001c 2100              MOVS      A2, #0                ; [DPU_V7M3_PIPE] |458|  ; [ORIG 16-BIT INS]
    2109 0000001e 2200              MOVS      A3, #0                ; [DPU_V7M3_PIPE] |458|  ; [ORIG 16-BIT INS]
    2110                    $C$DW$193       .dwtag  DW_TAG_TI_branch
    2111                            .dwattr $C$DW$193, DW_AT_low_pc(0x00)
    2112                            .dwattr $C$DW$193, DW_AT_name("sl_Start")
    2113                            .dwattr $C$DW$193, DW_AT_TI_call
    2114                    
    2115 00000020 FFFEF7FF!         BL        sl_Start              ; [DPU_V7M3_PIPE] |458|  ; [KEEP 32-BIT INS]
    2116                            ; CALL OCCURS {sl_Start }        ; [] |458| 
    2117 00000024 9000              STR       A1, [SP, #0]          ; [DPU_V7M3_PIPE] |458|  ; [ORIG 16-BIT INS]
    2118                            .dwpsn  file "/vagrant/2022_Q1_14_2_22/sdk_root/source/ti/drivers/net/wifi/slnetif/slwificonn.
    2119                    ;----------------------------------------------------------------------
    2120                    ; 459 | assert(retVal >= 0);                                                   
    2121                    ;----------------------------------------------------------------------
    2122 00000026 9900              LDR       A2, [SP, #0]          ; [DPU_V7M3_PIPE] |459|  ; [ORIG 16-BIT INS]
    2123 00000028 2000              MOVS      A1, #0                ; [DPU_V7M3_PIPE] |459|  ; [ORIG 16-BIT INS]
    2124 0000002a 2900              CMP       A2, #0                ; [DPU_V7M3_PIPE] |459|  ; [ORIG 16-BIT INS]
    2125 0000002c D400              BMI       ||$C$L25||            ; [DPU_V7M3_PIPE] |459|  ; [ORIG 16-BIT INS]
    2126                            ; BRANCHCC OCCURS {||$C$L25||}   ; [] |459| 
    2127                    ;* --------------------------------------------------------------------------*
    2128 0000002e 2001              MOVS      A1, #1                ; [DPU_V7M3_PIPE] |459|  ; [ORIG 16-BIT INS]
    2129                    ;* --------------------------------------------------------------------------*
    2130 00000030           ||$C$L25||:    
    2131 00000030 B910              CBNZ      A1, ||$C$L26||        ; []  ; [ORIG 16-BIT INS]
    2132                            ; BRANCHCC OCCURS {||$C$L26||}   ; [] |459| 
    2133                    ;* --------------------------------------------------------------------------*
    2134 00000032 A02B              ADR       A1, $C$SL29           ; [DPU_V7M3_PIPE] |459|  ; [ORIG 16-BIT INS]
    2135                    $C$DW$194       .dwtag  DW_TAG_TI_branch
    2136                            .dwattr $C$DW$194, DW_AT_low_pc(0x00)
    2137                            .dwattr $C$DW$194, DW_AT_name("_abort_msg")
    2138                            .dwattr $C$DW$194, DW_AT_TI_call
    2139                    
    2140 00000034 FFFEF7FF!         BL        _abort_msg            ; [DPU_V7M3_PIPE] |459|  ; [KEEP 32-BIT INS]
    2141                            ; CALL OCCURS {_abort_msg }      ; [] |459| 
    2142                    ;* --------------------------------------------------------------------------*
    2143 00000038           ||$C$L26||:    
    2144                            .dwpsn  file "/vagrant/2022_Q1_14_2_22/sdk_root/source/ti/drivers/net/wifi/slnetif/slwificonn.
    2145                    ;----------------------------------------------------------------------
TI ARM Assembler Unix v20.2.5 Sun Mar 27 17:11:53 2022

Copyright (c) 1996-2018 Texas Instruments Incorporated
slwificonn.asm                                                       PAGE   40

    2146                    ; 461 | if(g_ctx->state == SLWIFICONN_STATE_OFF ||                             
    2147                    ; 462 |    g_ctx->state == SLWIFICONN_STATE_IDLE)                              
    2148                    ;----------------------------------------------------------------------
    2149 00000038 484A              LDR       A1, $C$CON5           ; [DPU_V7M3_PIPE] |461|  ; [ORIG 16-BIT INS]
    2150 0000003a 6800              LDR       A1, [A1, #0]          ; [DPU_V7M3_PIPE] |461|  ; [ORIG 16-BIT INS]
    2151 0000003c 7800              LDRB      A1, [A1, #0]          ; [DPU_V7M3_PIPE] |461|  ; [ORIG 16-BIT INS]
    2152 0000003e B120              CBZ       A1, ||$C$L27||        ; []  ; [ORIG 16-BIT INS]
    2153                            ; BRANCHCC OCCURS {||$C$L27||}   ; [] |461| 
    2154                    ;* --------------------------------------------------------------------------*
    2155 00000040 4848              LDR       A1, $C$CON5           ; [DPU_V7M3_PIPE] |461|  ; [ORIG 16-BIT INS]
    2156 00000042 6800              LDR       A1, [A1, #0]          ; [DPU_V7M3_PIPE] |461|  ; [ORIG 16-BIT INS]
    2157 00000044 7800              LDRB      A1, [A1, #0]          ; [DPU_V7M3_PIPE] |461|  ; [ORIG 16-BIT INS]
    2158 00000046 2801              CMP       A1, #1                ; [DPU_V7M3_PIPE] |461|  ; [ORIG 16-BIT INS]
    2159 00000048 D103              BNE       ||$C$L28||            ; [DPU_V7M3_PIPE] |461|  ; [ORIG 16-BIT INS]
    2160                            ; BRANCHCC OCCURS {||$C$L28||}   ; [] |461| 
    2161                    ;* --------------------------------------------------------------------------*
    2162 0000004a           ||$C$L27||:    
    2163                            .dwpsn  file "/vagrant/2022_Q1_14_2_22/sdk_root/source/ti/drivers/net/wifi/slnetif/slwificonn.
    2164                    ;----------------------------------------------------------------------
    2165                    ; 464 | SuspendNWP(false);                                                     
    2166                    ; 466 | else                                                                   
    2167                    ;----------------------------------------------------------------------
    2168 0000004a 2000              MOVS      A1, #0                ; [DPU_V7M3_PIPE] |464|  ; [ORIG 16-BIT INS]
    2169                    $C$DW$195       .dwtag  DW_TAG_TI_branch
    2170                            .dwattr $C$DW$195, DW_AT_low_pc(0x00)
    2171                            .dwattr $C$DW$195, DW_AT_name("SuspendNWP")
    2172                            .dwattr $C$DW$195, DW_AT_TI_call
    2173                    
    2174 0000004c FFFEF7FF!         BL        SuspendNWP            ; [DPU_V7M3_PIPE] |464|  ; [KEEP 32-BIT INS]
    2175                            ; CALL OCCURS {SuspendNWP }      ; [] |464| 
    2176 00000050 E002              B         ||$C$L29||            ; [DPU_V7M3_PIPE]  ; [ORIG 16-BIT INS]
    2177                            ; BRANCH OCCURS {||$C$L29||}     ; [] 
    2178                    ;* --------------------------------------------------------------------------*
    2179 00000052           ||$C$L28||:    
    2180                            .dwpsn  file "/vagrant/2022_Q1_14_2_22/sdk_root/source/ti/drivers/net/wifi/slnetif/slwificonn.
    2181                    ;----------------------------------------------------------------------
    2182                    ; 468 | ResumeNWP(false);                                                      
    2183                    ;----------------------------------------------------------------------
    2184 00000052 2000              MOVS      A1, #0                ; [DPU_V7M3_PIPE] |468|  ; [ORIG 16-BIT INS]
    2185                    $C$DW$196       .dwtag  DW_TAG_TI_branch
    2186                            .dwattr $C$DW$196, DW_AT_low_pc(0x00)
    2187                            .dwattr $C$DW$196, DW_AT_name("ResumeNWP")
    2188                            .dwattr $C$DW$196, DW_AT_TI_call
    2189                    
    2190 00000054 FFFEF7FF!         BL        ResumeNWP             ; [DPU_V7M3_PIPE] |468|  ; [KEEP 32-BIT INS]
    2191                            ; CALL OCCURS {ResumeNWP }       ; [] |468| 
    2192                    ;* --------------------------------------------------------------------------*
    2193 00000058           ||$C$L29||:    
    2194                            .dwpsn  file "/vagrant/2022_Q1_14_2_22/sdk_root/source/ti/drivers/net/wifi/slnetif/slwificonn.
    2195                    ;----------------------------------------------------------------------
    2196                    ; 471 | return retVal;                                                         
    2197                    ;----------------------------------------------------------------------
    2198 00000058 9800              LDR       A1, [SP, #0]          ; [DPU_V7M3_PIPE] |471|  ; [ORIG 16-BIT INS]
    2199                            .dwpsn  file "/vagrant/2022_Q1_14_2_22/sdk_root/source/ti/drivers/net/wifi/slnetif/slwificonn.
    2200                    $C$DW$197       .dwtag  DW_TAG_TI_branch
TI ARM Assembler Unix v20.2.5 Sun Mar 27 17:11:53 2022

Copyright (c) 1996-2018 Texas Instruments Incorporated
slwificonn.asm                                                       PAGE   41

    2201                            .dwattr $C$DW$197, DW_AT_low_pc(0x00)
    2202                            .dwattr $C$DW$197, DW_AT_TI_return
    2203                    
    2204 0000005a BD08              POP       {A4, PC}              ; [DPU_V7M3_PIPE]  ; [ORIG 16-BIT INS]
    2205                            .dwcfi  cfa_offset, 0
    2206                            .dwcfi  restore_reg, 3
    2207                            ; BRANCH OCCURS                  ; [] 
    2208                            .dwattr $C$DW$189, DW_AT_TI_end_file("/vagrant/2022_Q1_14_2_22/sdk_root/source/ti/drivers/net/
    2209                            .dwattr $C$DW$189, DW_AT_TI_end_line(0x1d8)
    2210                            .dwattr $C$DW$189, DW_AT_TI_end_column(0x01)
    2211                            .dwendentry
    2212                            .dwendtag $C$DW$189
    2213                    
    2214 00000000                   .sect   ".text:SetRole"
    2215                            .clink
    2216                            .thumbfunc SetRole
    2217 00000000                   .thumb
    2218                    
    2219                    $C$DW$198       .dwtag  DW_TAG_subprogram
    2220                            .dwattr $C$DW$198, DW_AT_name("SetRole")
    2221                            .dwattr $C$DW$198, DW_AT_low_pc(SetRole)
    2222                            .dwattr $C$DW$198, DW_AT_high_pc(0x00)
    2223                            .dwattr $C$DW$198, DW_AT_TI_symbol_name("SetRole")
    2224                            .dwattr $C$DW$198, DW_AT_type(*$C$DW$T$10)
    2225                            .dwattr $C$DW$198, DW_AT_TI_begin_file("/vagrant/2022_Q1_14_2_22/sdk_root/source/ti/drivers/ne
    2226                            .dwattr $C$DW$198, DW_AT_TI_begin_line(0x1df)
    2227                            .dwattr $C$DW$198, DW_AT_TI_begin_column(0x0c)
    2228                            .dwattr $C$DW$198, DW_AT_decl_file("/vagrant/2022_Q1_14_2_22/sdk_root/source/ti/drivers/net/wi
    2229                            .dwattr $C$DW$198, DW_AT_decl_line(0x1df)
    2230                            .dwattr $C$DW$198, DW_AT_decl_column(0x0c)
    2231                            .dwattr $C$DW$198, DW_AT_TI_max_frame_size(0x10)
    2232                            .dwpsn  file "/vagrant/2022_Q1_14_2_22/sdk_root/source/ti/drivers/net/wifi/slnetif/slwificonn.
    2233                    
    2234                            .dwfde $C$DW$CIE, SetRole
    2235                    $C$DW$199       .dwtag  DW_TAG_formal_parameter
    2236                            .dwattr $C$DW$199, DW_AT_name("role")
    2237                            .dwattr $C$DW$199, DW_AT_TI_symbol_name("role")
    2238                            .dwattr $C$DW$199, DW_AT_type(*$C$DW$T$10)
    2239                            .dwattr $C$DW$199, DW_AT_location[DW_OP_reg0]
    2240                    
    2241                    ;----------------------------------------------------------------------
    2242                    ; 479 | static int SetRole(SlWlanMode_e role)                                  
    2243                    ;----------------------------------------------------------------------
    2244                    
    2245                    ;*****************************************************************************
    2246                    ;* FUNCTION NAME: SetRole                                                    *
    2247                    ;*                                                                           *
    2248                    ;*   Regs Modified     : A1,A2,A3,A4,V9,SP,LR,SR                             *
    2249                    ;*   Regs Used         : A1,A2,A3,A4,V9,SP,LR,SR                             *
    2250                    ;*   Local Frame Size  : 0 Args + 8 Auto + 4 Save = 12 byte                  *
    2251                    ;*****************************************************************************
    2252 00000000           SetRole:
    2253                    ;* --------------------------------------------------------------------------*
    2254                            .dwcfi  cfa_offset, 0
    2255 00000000 B50E              PUSH      {A2, A3, A4, LR}      ; [DPU_V7M3_PIPE]  ; [ORIG 16-BIT INS]
TI ARM Assembler Unix v20.2.5 Sun Mar 27 17:11:53 2022

Copyright (c) 1996-2018 Texas Instruments Incorporated
slwificonn.asm                                                       PAGE   42

    2256                            .dwcfi  cfa_offset, 16
    2257                            .dwcfi  save_reg_to_mem, 14, -4
    2258                            .dwcfi  save_reg_to_mem, 3, -8
    2259                            .dwcfi  save_reg_to_mem, 2, -12
    2260                            .dwcfi  save_reg_to_mem, 1, -16
    2261                    $C$DW$200       .dwtag  DW_TAG_variable
    2262                            .dwattr $C$DW$200, DW_AT_name("retVal")
    2263                            .dwattr $C$DW$200, DW_AT_TI_symbol_name("retVal")
    2264                            .dwattr $C$DW$200, DW_AT_type(*$C$DW$T$10)
    2265                            .dwattr $C$DW$200, DW_AT_location[DW_OP_breg13 0]
    2266                    
    2267                    $C$DW$201       .dwtag  DW_TAG_variable
    2268                            .dwattr $C$DW$201, DW_AT_name("role")
    2269                            .dwattr $C$DW$201, DW_AT_TI_symbol_name("role")
    2270                            .dwattr $C$DW$201, DW_AT_type(*$C$DW$T$595)
    2271                            .dwattr $C$DW$201, DW_AT_location[DW_OP_breg13 4]
    2272                    
    2273 00000002 0004F88D          STRB      A1, [SP, #4]          ; [DPU_V7M3_PIPE] |480|  ; [KEEP 32-BIT INS]
    2274                            .dwpsn  file "/vagrant/2022_Q1_14_2_22/sdk_root/source/ti/drivers/net/wifi/slnetif/slwificonn.
    2275                    ;----------------------------------------------------------------------
    2276                    ; 481 | int retVal = 0;                                                        
    2277                    ;----------------------------------------------------------------------
    2278 00000006 2000              MOVS      A1, #0                ; [DPU_V7M3_PIPE] |481|  ; [ORIG 16-BIT INS]
    2279 00000008 9000              STR       A1, [SP, #0]          ; [DPU_V7M3_PIPE] |481|  ; [ORIG 16-BIT INS]
    2280                            .dwpsn  file "/vagrant/2022_Q1_14_2_22/sdk_root/source/ti/drivers/net/wifi/slnetif/slwificonn.
    2281                    ;----------------------------------------------------------------------
    2282                    ; 482 | if(role != g_ctx->role)                                                
    2283                    ;----------------------------------------------------------------------
    2284 0000000a 4832              LDR       A1, $C$CON6           ; [DPU_V7M3_PIPE] |482|  ; [ORIG 16-BIT INS]
    2285 0000000c 6800              LDR       A1, [A1, #0]          ; [DPU_V7M3_PIPE] |482|  ; [ORIG 16-BIT INS]
    2286 0000000e 1004F89D          LDRB      A2, [SP, #4]          ; [DPU_V7M3_PIPE] |482|  ; [KEEP 32-BIT INS]
    2287 00000012 7D40              LDRB      A1, [A1, #21]         ; [DPU_V7M3_PIPE] |482|  ; [ORIG 16-BIT INS]
    2288 00000014 4288              CMP       A1, A2                ; [DPU_V7M3_PIPE] |482|  ; [ORIG 16-BIT INS]
    2289 00000016 D015              BEQ       ||$C$L31||            ; [DPU_V7M3_PIPE] |482|  ; [ORIG 16-BIT INS]
    2290                            ; BRANCHCC OCCURS {||$C$L31||}   ; [] |482| 
    2291                    ;* --------------------------------------------------------------------------*
    2292                            .dwpsn  file "/vagrant/2022_Q1_14_2_22/sdk_root/source/ti/drivers/net/wifi/slnetif/slwificonn.
    2293                    ;----------------------------------------------------------------------
    2294                    ; 487 | sl_WlanSetMode(role);                                                  
    2295                    ;----------------------------------------------------------------------
    2296 00000018 0004F89D          LDRB      A1, [SP, #4]          ; [DPU_V7M3_PIPE] |487|  ; [KEEP 32-BIT INS]
    2297                    $C$DW$202       .dwtag  DW_TAG_TI_branch
    2298                            .dwattr $C$DW$202, DW_AT_low_pc(0x00)
    2299                            .dwattr $C$DW$202, DW_AT_name("sl_WlanSetMode")
    2300                            .dwattr $C$DW$202, DW_AT_TI_call
    2301                    
    2302 0000001c FFFEF7FF!         BL        sl_WlanSetMode        ; [DPU_V7M3_PIPE] |487|  ; [KEEP 32-BIT INS]
    2303                            ; CALL OCCURS {sl_WlanSetMode }  ; [] |487| 
    2304                            .dwpsn  file "/vagrant/2022_Q1_14_2_22/sdk_root/source/ti/drivers/net/wifi/slnetif/slwificonn.
    2305                    ;----------------------------------------------------------------------
    2306                    ; 488 | g_ctx->role = ResetNWP();                                              
    2307                    ;----------------------------------------------------------------------
    2308                    $C$DW$203       .dwtag  DW_TAG_TI_branch
    2309                            .dwattr $C$DW$203, DW_AT_low_pc(0x00)
    2310                            .dwattr $C$DW$203, DW_AT_name("ResetNWP")
TI ARM Assembler Unix v20.2.5 Sun Mar 27 17:11:53 2022

Copyright (c) 1996-2018 Texas Instruments Incorporated
slwificonn.asm                                                       PAGE   43

    2311                            .dwattr $C$DW$203, DW_AT_TI_call
    2312                    
    2313 00000020 FFFEF7FF!         BL        ResetNWP              ; [DPU_V7M3_PIPE] |488|  ; [KEEP 32-BIT INS]
    2314                            ; CALL OCCURS {ResetNWP }        ; [] |488| 
    2315 00000024 492B              LDR       A2, $C$CON6           ; [DPU_V7M3_PIPE] |488|  ; [ORIG 16-BIT INS]
    2316 00000026 6809              LDR       A2, [A2, #0]          ; [DPU_V7M3_PIPE] |488|  ; [ORIG 16-BIT INS]
    2317 00000028 7548              STRB      A1, [A2, #21]         ; [DPU_V7M3_PIPE] |488|  ; [ORIG 16-BIT INS]
    2318                            .dwpsn  file "/vagrant/2022_Q1_14_2_22/sdk_root/source/ti/drivers/net/wifi/slnetif/slwificonn.
    2319                    ;----------------------------------------------------------------------
    2320                    ; 489 | assert(role == g_ctx->role);                                           
    2321                    ;----------------------------------------------------------------------
    2322 0000002a 482A              LDR       A1, $C$CON6           ; [DPU_V7M3_PIPE] |489|  ; [ORIG 16-BIT INS]
    2323 0000002c 6800              LDR       A1, [A1, #0]          ; [DPU_V7M3_PIPE] |489|  ; [ORIG 16-BIT INS]
    2324 0000002e 2004F89D          LDRB      A3, [SP, #4]          ; [DPU_V7M3_PIPE] |489|  ; [KEEP 32-BIT INS]
    2325 00000032 7D41              LDRB      A2, [A1, #21]         ; [DPU_V7M3_PIPE] |489|  ; [ORIG 16-BIT INS]
    2326 00000034 2000              MOVS      A1, #0                ; [DPU_V7M3_PIPE] |489|  ; [ORIG 16-BIT INS]
    2327 00000036 4291              CMP       A2, A3                ; [DPU_V7M3_PIPE] |489|  ; [ORIG 16-BIT INS]
    2328 00000038 D100              BNE       ||$C$L30||            ; [DPU_V7M3_PIPE] |489|  ; [ORIG 16-BIT INS]
    2329                            ; BRANCHCC OCCURS {||$C$L30||}   ; [] |489| 
    2330                    ;* --------------------------------------------------------------------------*
    2331 0000003a 2001              MOVS      A1, #1                ; [DPU_V7M3_PIPE] |489|  ; [ORIG 16-BIT INS]
    2332                    ;* --------------------------------------------------------------------------*
    2333 0000003c           ||$C$L30||:    
    2334 0000003c B910              CBNZ      A1, ||$C$L31||        ; []  ; [ORIG 16-BIT INS]
    2335                            ; BRANCHCC OCCURS {||$C$L31||}   ; [] |489| 
    2336                    ;* --------------------------------------------------------------------------*
    2337 0000003e A002              ADR       A1, $C$SL30           ; [DPU_V7M3_PIPE] |489|  ; [ORIG 16-BIT INS]
    2338                    $C$DW$204       .dwtag  DW_TAG_TI_branch
    2339                            .dwattr $C$DW$204, DW_AT_low_pc(0x00)
    2340                            .dwattr $C$DW$204, DW_AT_name("_abort_msg")
    2341                            .dwattr $C$DW$204, DW_AT_TI_call
    2342                    
    2343 00000040 FFFEF7FF!         BL        _abort_msg            ; [DPU_V7M3_PIPE] |489|  ; [KEEP 32-BIT INS]
    2344                            ; CALL OCCURS {_abort_msg }      ; [] |489| 
    2345                    ;* --------------------------------------------------------------------------*
    2346 00000044           ||$C$L31||:    
    2347                            .dwpsn  file "/vagrant/2022_Q1_14_2_22/sdk_root/source/ti/drivers/net/wifi/slnetif/slwificonn.
    2348                    ;----------------------------------------------------------------------
    2349                    ; 491 | return retVal;                                                         
    2350                    ;----------------------------------------------------------------------
    2351 00000044 9800              LDR       A1, [SP, #0]          ; [DPU_V7M3_PIPE] |491|  ; [ORIG 16-BIT INS]
    2352                            .dwpsn  file "/vagrant/2022_Q1_14_2_22/sdk_root/source/ti/drivers/net/wifi/slnetif/slwificonn.
    2353                    $C$DW$205       .dwtag  DW_TAG_TI_branch
    2354                            .dwattr $C$DW$205, DW_AT_low_pc(0x00)
    2355                            .dwattr $C$DW$205, DW_AT_TI_return
    2356                    
    2357 00000046 BD0E              POP       {A2, A3, A4, PC}      ; [DPU_V7M3_PIPE]  ; [ORIG 16-BIT INS]
    2358                            .dwcfi  cfa_offset, 0
    2359                            .dwcfi  restore_reg, 3
    2360                            .dwcfi  restore_reg, 2
    2361                            .dwcfi  restore_reg, 1
    2362                            ; BRANCH OCCURS                  ; [] 
    2363                            .dwattr $C$DW$198, DW_AT_TI_end_file("/vagrant/2022_Q1_14_2_22/sdk_root/source/ti/drivers/net/
    2364                            .dwattr $C$DW$198, DW_AT_TI_end_line(0x1ec)
    2365                            .dwattr $C$DW$198, DW_AT_TI_end_column(0x01)
TI ARM Assembler Unix v20.2.5 Sun Mar 27 17:11:53 2022

Copyright (c) 1996-2018 Texas Instruments Incorporated
slwificonn.asm                                                       PAGE   44

    2366                            .dwendentry
    2367                            .dwendtag $C$DW$198
    2368                    
    2369 00000000                   .sect   ".text:Deinit"
    2370                            .clink
    2371                            .thumbfunc Deinit
    2372 00000000                   .thumb
    2373                    
    2374                    $C$DW$206       .dwtag  DW_TAG_subprogram
    2375                            .dwattr $C$DW$206, DW_AT_name("Deinit")
    2376                            .dwattr $C$DW$206, DW_AT_low_pc(Deinit)
    2377                            .dwattr $C$DW$206, DW_AT_high_pc(0x00)
    2378                            .dwattr $C$DW$206, DW_AT_TI_symbol_name("Deinit")
    2379                            .dwattr $C$DW$206, DW_AT_type(*$C$DW$T$10)
    2380                            .dwattr $C$DW$206, DW_AT_TI_begin_file("/vagrant/2022_Q1_14_2_22/sdk_root/source/ti/drivers/ne
    2381                            .dwattr $C$DW$206, DW_AT_TI_begin_line(0x1f4)
    2382                            .dwattr $C$DW$206, DW_AT_TI_begin_column(0x05)
    2383                            .dwattr $C$DW$206, DW_AT_decl_file("/vagrant/2022_Q1_14_2_22/sdk_root/source/ti/drivers/net/wi
    2384                            .dwattr $C$DW$206, DW_AT_decl_line(0x1f4)
    2385                            .dwattr $C$DW$206, DW_AT_decl_column(0x05)
    2386                            .dwattr $C$DW$206, DW_AT_TI_max_frame_size(0x08)
    2387                            .dwpsn  file "/vagrant/2022_Q1_14_2_22/sdk_root/source/ti/drivers/net/wifi/slnetif/slwificonn.
    2388                    
    2389                            .dwfde $C$DW$CIE, Deinit
    2390                    ;----------------------------------------------------------------------
    2391                    ; 500 | int Deinit()                                                           
    2392                    ;----------------------------------------------------------------------
    2393                    
    2394                    ;*****************************************************************************
    2395                    ;* FUNCTION NAME: Deinit                                                     *
    2396                    ;*                                                                           *
    2397                    ;*   Regs Modified     : A1,A2,A3,A4,V9,SP,LR,SR                             *
    2398                    ;*   Regs Used         : A1,A2,A3,A4,V9,SP,LR,SR                             *
    2399                    ;*   Local Frame Size  : 0 Args + 0 Auto + 4 Save = 4 byte                   *
    2400                    ;*****************************************************************************
    2401 00000000           Deinit:
    2402                    ;* --------------------------------------------------------------------------*
    2403                            .dwcfi  cfa_offset, 0
    2404 00000000 B508              PUSH      {A4, LR}              ; [DPU_V7M3_PIPE]  ; [ORIG 16-BIT INS]
    2405                            .dwcfi  cfa_offset, 8
    2406                            .dwcfi  save_reg_to_mem, 14, -4
    2407                            .dwcfi  save_reg_to_mem, 3, -8
    2408                            .dwpsn  file "/vagrant/2022_Q1_14_2_22/sdk_root/source/ti/drivers/net/wifi/slnetif/slwificonn.
    2409                    ;----------------------------------------------------------------------
    2410                    ; 502 | sl_UnregisterLibsEventHandler(SL_EVENT_HDL_WLAN, &SlEventHandlers[0]); 
    2411                    ;----------------------------------------------------------------------
    2412 00000002 491B              LDR       A2, $C$CON7           ; [DPU_V7M3_PIPE] |502|  ; [ORIG 16-BIT INS]
    2413 00000004 2002              MOVS      A1, #2                ; [DPU_V7M3_PIPE] |502|  ; [ORIG 16-BIT INS]
    2414                    $C$DW$207       .dwtag  DW_TAG_TI_branch
    2415                            .dwattr $C$DW$207, DW_AT_low_pc(0x00)
    2416                            .dwattr $C$DW$207, DW_AT_name("sl_UnregisterLibsEventHandler")
    2417                            .dwattr $C$DW$207, DW_AT_TI_call
    2418                    
    2419 00000006 FFFEF7FF!         BL        sl_UnregisterLibsEventHandler ; [DPU_V7M3_PIPE] |502|  ; [KEEP 32-BIT INS]
    2420                            ; CALL OCCURS {sl_UnregisterLibsEventHandler }  ; [] |502| 
TI ARM Assembler Unix v20.2.5 Sun Mar 27 17:11:53 2022

Copyright (c) 1996-2018 Texas Instruments Incorporated
slwificonn.asm                                                       PAGE   45

    2421                            .dwpsn  file "/vagrant/2022_Q1_14_2_22/sdk_root/source/ti/drivers/net/wifi/slnetif/slwificonn.
    2422                    ;----------------------------------------------------------------------
    2423                    ; 503 | sl_UnregisterLibsEventHandler(SL_EVENT_HDL_NETAPP, &SlEventHandlers[1])
    2424                    ;     | ;                                                                      
    2425                    ;----------------------------------------------------------------------
    2426 0000000a 491A              LDR       A2, $C$CON8           ; [DPU_V7M3_PIPE] |503|  ; [ORIG 16-BIT INS]
    2427 0000000c 2003              MOVS      A1, #3                ; [DPU_V7M3_PIPE] |503|  ; [ORIG 16-BIT INS]
    2428                    $C$DW$208       .dwtag  DW_TAG_TI_branch
    2429                            .dwattr $C$DW$208, DW_AT_low_pc(0x00)
    2430                            .dwattr $C$DW$208, DW_AT_name("sl_UnregisterLibsEventHandler")
    2431                            .dwattr $C$DW$208, DW_AT_TI_call
    2432                    
    2433 0000000e FFFEF7FF!         BL        sl_UnregisterLibsEventHandler ; [DPU_V7M3_PIPE] |503|  ; [KEEP 32-BIT INS]
    2434                            ; CALL OCCURS {sl_UnregisterLibsEventHandler }  ; [] |503| 
    2435                            .dwpsn  file "/vagrant/2022_Q1_14_2_22/sdk_root/source/ti/drivers/net/wifi/slnetif/slwificonn.
    2436                    ;----------------------------------------------------------------------
    2437                    ; 504 | sl_UnregisterLibsEventHandler(SL_EVENT_HDL_DEVICE_GENERAL, &SlEventHand
    2438                    ;     | lers[2]);                                                              
    2439                    ;----------------------------------------------------------------------
    2440 00000012 4919              LDR       A2, $C$CON9           ; [DPU_V7M3_PIPE] |504|  ; [ORIG 16-BIT INS]
    2441 00000014 2001              MOVS      A1, #1                ; [DPU_V7M3_PIPE] |504|  ; [ORIG 16-BIT INS]
    2442                    $C$DW$209       .dwtag  DW_TAG_TI_branch
    2443                            .dwattr $C$DW$209, DW_AT_low_pc(0x00)
    2444                            .dwattr $C$DW$209, DW_AT_name("sl_UnregisterLibsEventHandler")
    2445                            .dwattr $C$DW$209, DW_AT_TI_call
    2446                    
    2447 00000016 FFFEF7FF!         BL        sl_UnregisterLibsEventHandler ; [DPU_V7M3_PIPE] |504|  ; [KEEP 32-BIT INS]
    2448                            ; CALL OCCURS {sl_UnregisterLibsEventHandler }  ; [] |504| 
    2449                            .dwpsn  file "/vagrant/2022_Q1_14_2_22/sdk_root/source/ti/drivers/net/wifi/slnetif/slwificonn.
    2450                    ;----------------------------------------------------------------------
    2451                    ; 506 | mq_close(g_ctx->DeferredEventQ);                                       
    2452                    ;----------------------------------------------------------------------
    2453 0000001a 4818              LDR       A1, $C$CON10          ; [DPU_V7M3_PIPE] |506|  ; [ORIG 16-BIT INS]
    2454 0000001c 6800              LDR       A1, [A1, #0]          ; [DPU_V7M3_PIPE] |506|  ; [ORIG 16-BIT INS]
    2455 0000001e 6880              LDR       A1, [A1, #8]          ; [DPU_V7M3_PIPE] |506|  ; [ORIG 16-BIT INS]
    2456                    $C$DW$210       .dwtag  DW_TAG_TI_branch
    2457                            .dwattr $C$DW$210, DW_AT_low_pc(0x00)
    2458                            .dwattr $C$DW$210, DW_AT_name("mq_close")
    2459                            .dwattr $C$DW$210, DW_AT_TI_call
    2460                    
    2461 00000020 FFFEF7FF!         BL        mq_close              ; [DPU_V7M3_PIPE] |506|  ; [KEEP 32-BIT INS]
    2462                            ; CALL OCCURS {mq_close }        ; [] |506| 
    2463                            .dwpsn  file "/vagrant/2022_Q1_14_2_22/sdk_root/source/ti/drivers/net/wifi/slnetif/slwificonn.
    2464                    ;----------------------------------------------------------------------
    2465                    ; 507 | mq_close(g_ctx->eventQ);                                               
    2466                    ;----------------------------------------------------------------------
    2467 00000024 4815              LDR       A1, $C$CON10          ; [DPU_V7M3_PIPE] |507|  ; [ORIG 16-BIT INS]
    2468 00000026 6800              LDR       A1, [A1, #0]          ; [DPU_V7M3_PIPE] |507|  ; [ORIG 16-BIT INS]
    2469 00000028 6840              LDR       A1, [A1, #4]          ; [DPU_V7M3_PIPE] |507|  ; [ORIG 16-BIT INS]
    2470                    $C$DW$211       .dwtag  DW_TAG_TI_branch
    2471                            .dwattr $C$DW$211, DW_AT_low_pc(0x00)
    2472                            .dwattr $C$DW$211, DW_AT_name("mq_close")
    2473                            .dwattr $C$DW$211, DW_AT_TI_call
    2474                    
    2475 0000002a FFFEF7FF!         BL        mq_close              ; [DPU_V7M3_PIPE] |507|  ; [KEEP 32-BIT INS]
TI ARM Assembler Unix v20.2.5 Sun Mar 27 17:11:53 2022

Copyright (c) 1996-2018 Texas Instruments Incorporated
slwificonn.asm                                                       PAGE   46

    2476                            ; CALL OCCURS {mq_close }        ; [] |507| 
    2477                            .dwpsn  file "/vagrant/2022_Q1_14_2_22/sdk_root/source/ti/drivers/net/wifi/slnetif/slwificonn.
    2478                    ;----------------------------------------------------------------------
    2479                    ; 509 | timer_delete(g_ctx->timer);                                            
    2480                    ;----------------------------------------------------------------------
    2481 0000002e 4813              LDR       A1, $C$CON10          ; [DPU_V7M3_PIPE] |509|  ; [ORIG 16-BIT INS]
    2482 00000030 6800              LDR       A1, [A1, #0]          ; [DPU_V7M3_PIPE] |509|  ; [ORIG 16-BIT INS]
    2483 00000032 68C0              LDR       A1, [A1, #12]         ; [DPU_V7M3_PIPE] |509|  ; [ORIG 16-BIT INS]
    2484                    $C$DW$212       .dwtag  DW_TAG_TI_branch
    2485                            .dwattr $C$DW$212, DW_AT_low_pc(0x00)
    2486                            .dwattr $C$DW$212, DW_AT_name("timer_delete")
    2487                            .dwattr $C$DW$212, DW_AT_TI_call
    2488                    
    2489 00000034 FFFEF7FF!         BL        timer_delete          ; [DPU_V7M3_PIPE] |509|  ; [KEEP 32-BIT INS]
    2490                            ; CALL OCCURS {timer_delete }    ; [] |509| 
    2491                            .dwpsn  file "/vagrant/2022_Q1_14_2_22/sdk_root/source/ti/drivers/net/wifi/slnetif/slwificonn.
    2492                    ;----------------------------------------------------------------------
    2493                    ; 511 | if(g_ctx->pNonPersistentProfile)                                       
    2494                    ;----------------------------------------------------------------------
    2495 00000038 4810              LDR       A1, $C$CON10          ; [DPU_V7M3_PIPE] |511|  ; [ORIG 16-BIT INS]
    2496 0000003a 6800              LDR       A1, [A1, #0]          ; [DPU_V7M3_PIPE] |511|  ; [ORIG 16-BIT INS]
    2497 0000003c 6F00              LDR       A1, [A1, #112]        ; [DPU_V7M3_PIPE] |511|  ; [ORIG 16-BIT INS]
    2498 0000003e B120              CBZ       A1, ||$C$L32||        ; []  ; [ORIG 16-BIT INS]
    2499                            ; BRANCHCC OCCURS {||$C$L32||}   ; [] |511| 
    2500                    ;* --------------------------------------------------------------------------*
    2501                            .dwpsn  file "/vagrant/2022_Q1_14_2_22/sdk_root/source/ti/drivers/net/wifi/slnetif/slwificonn.
    2502                    ;----------------------------------------------------------------------
    2503                    ; 513 | free(g_ctx->pNonPersistentProfile);                                    
    2504                    ;----------------------------------------------------------------------
    2505 00000040 480E              LDR       A1, $C$CON10          ; [DPU_V7M3_PIPE] |513|  ; [ORIG 16-BIT INS]
    2506 00000042 6800              LDR       A1, [A1, #0]          ; [DPU_V7M3_PIPE] |513|  ; [ORIG 16-BIT INS]
    2507 00000044 6F00              LDR       A1, [A1, #112]        ; [DPU_V7M3_PIPE] |513|  ; [ORIG 16-BIT INS]
    2508                    $C$DW$213       .dwtag  DW_TAG_TI_branch
    2509                            .dwattr $C$DW$213, DW_AT_low_pc(0x00)
    2510                            .dwattr $C$DW$213, DW_AT_name("free")
    2511                            .dwattr $C$DW$213, DW_AT_TI_call
    2512                    
    2513 00000046 FFFEF7FF!         BL        free                  ; [DPU_V7M3_PIPE] |513|  ; [KEEP 32-BIT INS]
    2514                            ; CALL OCCURS {free }            ; [] |513| 
    2515                    ;* --------------------------------------------------------------------------*
    2516 0000004a           ||$C$L32||:    
    2517                            .dwpsn  file "/vagrant/2022_Q1_14_2_22/sdk_root/source/ti/drivers/net/wifi/slnetif/slwificonn.
    2518                    ;----------------------------------------------------------------------
    2519                    ; 515 | sl_Stop(SL_STOP_TIMEOUT);                                              
    2520                    ;----------------------------------------------------------------------
    2521 0000004a 20C8              MOVS      A1, #200              ; [DPU_V7M3_PIPE] |515|  ; [ORIG 16-BIT INS]
    2522                    $C$DW$214       .dwtag  DW_TAG_TI_branch
    2523                            .dwattr $C$DW$214, DW_AT_low_pc(0x00)
    2524                            .dwattr $C$DW$214, DW_AT_name("sl_Stop")
    2525                            .dwattr $C$DW$214, DW_AT_TI_call
    2526                    
    2527 0000004c FFFEF7FF!         BL        sl_Stop               ; [DPU_V7M3_PIPE] |515|  ; [KEEP 32-BIT INS]
    2528                            ; CALL OCCURS {sl_Stop }         ; [] |515| 
    2529                            .dwpsn  file "/vagrant/2022_Q1_14_2_22/sdk_root/source/ti/drivers/net/wifi/slnetif/slwificonn.
    2530                    ;----------------------------------------------------------------------
TI ARM Assembler Unix v20.2.5 Sun Mar 27 17:11:53 2022

Copyright (c) 1996-2018 Texas Instruments Incorporated
slwificonn.asm                                                       PAGE   47

    2531                    ; 517 | free(g_ctx);                                                           
    2532                    ;----------------------------------------------------------------------
    2533 00000050 480A              LDR       A1, $C$CON10          ; [DPU_V7M3_PIPE] |517|  ; [ORIG 16-BIT INS]
    2534 00000052 6800              LDR       A1, [A1, #0]          ; [DPU_V7M3_PIPE] |517|  ; [ORIG 16-BIT INS]
    2535                    $C$DW$215       .dwtag  DW_TAG_TI_branch
    2536                            .dwattr $C$DW$215, DW_AT_low_pc(0x00)
    2537                            .dwattr $C$DW$215, DW_AT_name("free")
    2538                            .dwattr $C$DW$215, DW_AT_TI_call
    2539                    
    2540 00000054 FFFEF7FF!         BL        free                  ; [DPU_V7M3_PIPE] |517|  ; [KEEP 32-BIT INS]
    2541                            ; CALL OCCURS {free }            ; [] |517| 
    2542                            .dwpsn  file "/vagrant/2022_Q1_14_2_22/sdk_root/source/ti/drivers/net/wifi/slnetif/slwificonn.
    2543                    ;----------------------------------------------------------------------
    2544                    ; 518 | g_ctx = NULL;                                                          
    2545                    ;----------------------------------------------------------------------
    2546 00000058 4908              LDR       A2, $C$CON10          ; [DPU_V7M3_PIPE] |518|  ; [ORIG 16-BIT INS]
    2547 0000005a 2000              MOVS      A1, #0                ; [DPU_V7M3_PIPE] |518|  ; [ORIG 16-BIT INS]
    2548 0000005c 6008              STR       A1, [A2, #0]          ; [DPU_V7M3_PIPE] |518|  ; [ORIG 16-BIT INS]
    2549                            .dwpsn  file "/vagrant/2022_Q1_14_2_22/sdk_root/source/ti/drivers/net/wifi/slnetif/slwificonn.
    2550                    ;----------------------------------------------------------------------
    2551                    ; 520 | CRITICAL_SECTION_EXIT();                                               
    2552                    ;----------------------------------------------------------------------
    2553 0000005e 4808              LDR       A1, $C$CON11          ; [DPU_V7M3_PIPE] |520|  ; [ORIG 16-BIT INS]
    2554                    $C$DW$216       .dwtag  DW_TAG_TI_branch
    2555                            .dwattr $C$DW$216, DW_AT_low_pc(0x00)
    2556                            .dwattr $C$DW$216, DW_AT_name("sem_post")
    2557                            .dwattr $C$DW$216, DW_AT_TI_call
    2558                    
    2559 00000060 FFFEF7FF!         BL        sem_post              ; [DPU_V7M3_PIPE] |520|  ; [KEEP 32-BIT INS]
    2560                            ; CALL OCCURS {sem_post }        ; [] |520| 
    2561                            .dwpsn  file "/vagrant/2022_Q1_14_2_22/sdk_root/source/ti/drivers/net/wifi/slnetif/slwificonn.
    2562                    ;----------------------------------------------------------------------
    2563                    ; 521 | CRITICAL_SECTION_DESTROY();                                            
    2564                    ;----------------------------------------------------------------------
    2565 00000064 4806              LDR       A1, $C$CON11          ; [DPU_V7M3_PIPE] |521|  ; [ORIG 16-BIT INS]
    2566                    $C$DW$217       .dwtag  DW_TAG_TI_branch
    2567                            .dwattr $C$DW$217, DW_AT_low_pc(0x00)
    2568                            .dwattr $C$DW$217, DW_AT_name("sem_destroy")
    2569                            .dwattr $C$DW$217, DW_AT_TI_call
    2570                    
    2571 00000066 FFFEF7FF!         BL        sem_destroy           ; [DPU_V7M3_PIPE] |521|  ; [KEEP 32-BIT INS]
    2572                            ; CALL OCCURS {sem_destroy }     ; [] |521| 
    2573                            .dwpsn  file "/vagrant/2022_Q1_14_2_22/sdk_root/source/ti/drivers/net/wifi/slnetif/slwificonn.
    2574                    ;----------------------------------------------------------------------
    2575                    ; 523 | return 0;                                                              
    2576                    ;----------------------------------------------------------------------
    2577 0000006a 2000              MOVS      A1, #0                ; [DPU_V7M3_PIPE] |523|  ; [ORIG 16-BIT INS]
    2578                            .dwpsn  file "/vagrant/2022_Q1_14_2_22/sdk_root/source/ti/drivers/net/wifi/slnetif/slwificonn.
    2579                    $C$DW$218       .dwtag  DW_TAG_TI_branch
    2580                            .dwattr $C$DW$218, DW_AT_low_pc(0x00)
    2581                            .dwattr $C$DW$218, DW_AT_TI_return
    2582                    
    2583 0000006c BD08              POP       {A4, PC}              ; [DPU_V7M3_PIPE]  ; [ORIG 16-BIT INS]
    2584                            .dwcfi  cfa_offset, 0
    2585                            .dwcfi  restore_reg, 3
TI ARM Assembler Unix v20.2.5 Sun Mar 27 17:11:53 2022

Copyright (c) 1996-2018 Texas Instruments Incorporated
slwificonn.asm                                                       PAGE   48

    2586                            ; BRANCH OCCURS                  ; [] 
    2587                            .dwattr $C$DW$206, DW_AT_TI_end_file("/vagrant/2022_Q1_14_2_22/sdk_root/source/ti/drivers/net/
    2588                            .dwattr $C$DW$206, DW_AT_TI_end_line(0x20c)
    2589                            .dwattr $C$DW$206, DW_AT_TI_end_column(0x01)
    2590                            .dwendentry
    2591                            .dwendtag $C$DW$206
    2592                    
    2593 00000000                   .sect   ".text:InitNWPConnPolicy"
    2594                            .clink
    2595                            .thumbfunc InitNWPConnPolicy
    2596 00000000                   .thumb
    2597                    
    2598                    $C$DW$219       .dwtag  DW_TAG_subprogram
    2599                            .dwattr $C$DW$219, DW_AT_name("InitNWPConnPolicy")
    2600                            .dwattr $C$DW$219, DW_AT_low_pc(InitNWPConnPolicy)
    2601                            .dwattr $C$DW$219, DW_AT_high_pc(0x00)
    2602                            .dwattr $C$DW$219, DW_AT_TI_symbol_name("InitNWPConnPolicy")
    2603                            .dwattr $C$DW$219, DW_AT_type(*$C$DW$T$10)
    2604                            .dwattr $C$DW$219, DW_AT_TI_begin_file("/vagrant/2022_Q1_14_2_22/sdk_root/source/ti/drivers/ne
    2605                            .dwattr $C$DW$219, DW_AT_TI_begin_line(0x213)
    2606                            .dwattr $C$DW$219, DW_AT_TI_begin_column(0x0c)
    2607                            .dwattr $C$DW$219, DW_AT_decl_file("/vagrant/2022_Q1_14_2_22/sdk_root/source/ti/drivers/net/wi
    2608                            .dwattr $C$DW$219, DW_AT_decl_line(0x213)
    2609                            .dwattr $C$DW$219, DW_AT_decl_column(0x0c)
    2610                            .dwattr $C$DW$219, DW_AT_TI_max_frame_size(0x10)
    2611                            .dwpsn  file "/vagrant/2022_Q1_14_2_22/sdk_root/source/ti/drivers/net/wifi/slnetif/slwificonn.
    2612                    
    2613                            .dwfde $C$DW$CIE, InitNWPConnPolicy
    2614                    ;----------------------------------------------------------------------
    2615                    ; 531 | static int InitNWPConnPolicy()                                         
    2616                    ; 533 | int retVal;                                                            
    2617                    ;----------------------------------------------------------------------
    2618                    
    2619                    ;*****************************************************************************
    2620                    ;* FUNCTION NAME: InitNWPConnPolicy                                          *
    2621                    ;*                                                                           *
    2622                    ;*   Regs Modified     : A1,A2,A3,A4,V9,SP,LR,SR                             *
    2623                    ;*   Regs Used         : A1,A2,A3,A4,V9,SP,LR,SR                             *
    2624                    ;*   Local Frame Size  : 0 Args + 8 Auto + 4 Save = 12 byte                  *
    2625                    ;*****************************************************************************
    2626 00000000           InitNWPConnPolicy:
    2627                    ;* --------------------------------------------------------------------------*
    2628                            .dwcfi  cfa_offset, 0
    2629 00000000 B50E              PUSH      {A2, A3, A4, LR}      ; [DPU_V7M3_PIPE]  ; [ORIG 16-BIT INS]
    2630                            .dwcfi  cfa_offset, 16
    2631                            .dwcfi  save_reg_to_mem, 14, -4
    2632                            .dwcfi  save_reg_to_mem, 3, -8
    2633                            .dwcfi  save_reg_to_mem, 2, -12
    2634                            .dwcfi  save_reg_to_mem, 1, -16
    2635                    $C$DW$220       .dwtag  DW_TAG_variable
    2636                            .dwattr $C$DW$220, DW_AT_name("retVal")
    2637                            .dwattr $C$DW$220, DW_AT_TI_symbol_name("retVal")
    2638                            .dwattr $C$DW$220, DW_AT_type(*$C$DW$T$10)
    2639                            .dwattr $C$DW$220, DW_AT_location[DW_OP_breg13 0]
    2640                    
TI ARM Assembler Unix v20.2.5 Sun Mar 27 17:11:53 2022

Copyright (c) 1996-2018 Texas Instruments Incorporated
slwificonn.asm                                                       PAGE   49

    2641                    $C$DW$221       .dwtag  DW_TAG_variable
    2642                            .dwattr $C$DW$221, DW_AT_name("policy")
    2643                            .dwattr $C$DW$221, DW_AT_TI_symbol_name("policy")
    2644                            .dwattr $C$DW$221, DW_AT_type(*$C$DW$T$71)
    2645                            .dwattr $C$DW$221, DW_AT_location[DW_OP_breg13 4]
    2646                    
    2647                    $C$DW$222       .dwtag  DW_TAG_variable
    2648                            .dwattr $C$DW$222, DW_AT_name("length")
    2649                            .dwattr $C$DW$222, DW_AT_TI_symbol_name("length")
    2650                            .dwattr $C$DW$222, DW_AT_type(*$C$DW$T$71)
    2651                            .dwattr $C$DW$222, DW_AT_location[DW_OP_breg13 5]
    2652                    
    2653                            .dwpsn  file "/vagrant/2022_Q1_14_2_22/sdk_root/source/ti/drivers/net/wifi/slnetif/slwificonn.
    2654                    ;----------------------------------------------------------------------
    2655                    ; 534 | uint8_t policy = 0;                                                    
    2656                    ;----------------------------------------------------------------------
    2657 00000002 2000              MOVS      A1, #0                ; [DPU_V7M3_PIPE] |534|  ; [ORIG 16-BIT INS]
    2658 00000004 0004F88D          STRB      A1, [SP, #4]          ; [DPU_V7M3_PIPE] |534|  ; [KEEP 32-BIT INS]
    2659                            .dwpsn  file "/vagrant/2022_Q1_14_2_22/sdk_root/source/ti/drivers/net/wifi/slnetif/slwificonn.
    2660                    ;----------------------------------------------------------------------
    2661                    ; 535 | uint8_t length = 1;                                                    
    2662                    ;----------------------------------------------------------------------
    2663 00000008 2001              MOVS      A1, #1                ; [DPU_V7M3_PIPE] |535|  ; [ORIG 16-BIT INS]
    2664 0000000a 0005F88D          STRB      A1, [SP, #5]          ; [DPU_V7M3_PIPE] |535|  ; [KEEP 32-BIT INS]
    2665                            .dwpsn  file "/vagrant/2022_Q1_14_2_22/sdk_root/source/ti/drivers/net/wifi/slnetif/slwificonn.
    2666                    ;----------------------------------------------------------------------
    2667                    ; 537 | retVal = sl_WlanPolicyGet(SL_WLAN_POLICY_CONNECTION ,&policy, NULL, &le
    2668                    ;     | ngth);                                                                 
    2669                    ;----------------------------------------------------------------------
    2670 0000000e 2200              MOVS      A3, #0                ; [DPU_V7M3_PIPE] |537|  ; [ORIG 16-BIT INS]
    2671 00000010 2010              MOVS      A1, #16               ; [DPU_V7M3_PIPE] |537|  ; [ORIG 16-BIT INS]
    2672 00000012 A901              ADD       A2, SP, #4            ; [DPU_V7M3_PIPE] |537|  ; [ORIG 16-BIT INS]
    2673 00000014 0305F10D          ADD       A4, SP, #5            ; [DPU_V7M3_PIPE] |537|  ; [KEEP 32-BIT INS]
    2674                    $C$DW$223       .dwtag  DW_TAG_TI_branch
    2675                            .dwattr $C$DW$223, DW_AT_low_pc(0x00)
    2676                            .dwattr $C$DW$223, DW_AT_name("sl_WlanPolicyGet")
    2677                            .dwattr $C$DW$223, DW_AT_TI_call
    2678                    
    2679 00000018 FFFEF7FF!         BL        sl_WlanPolicyGet      ; [DPU_V7M3_PIPE] |537|  ; [KEEP 32-BIT INS]
    2680                            ; CALL OCCURS {sl_WlanPolicyGet }  ; [] |537| 
    2681 0000001c 9000              STR       A1, [SP, #0]          ; [DPU_V7M3_PIPE] |537|  ; [ORIG 16-BIT INS]
    2682                            .dwpsn  file "/vagrant/2022_Q1_14_2_22/sdk_root/source/ti/drivers/net/wifi/slnetif/slwificonn.
    2683                    ;----------------------------------------------------------------------
    2684                    ; 538 | if(retVal == 0)                                                        
    2685                    ;----------------------------------------------------------------------
    2686 0000001e 9800              LDR       A1, [SP, #0]          ; [DPU_V7M3_PIPE] |538|  ; [ORIG 16-BIT INS]
    2687 00000020 B988              CBNZ      A1, ||$C$L33||        ; []  ; [ORIG 16-BIT INS]
    2688                            ; BRANCHCC OCCURS {||$C$L33||}   ; [] |538| 
    2689                    ;* --------------------------------------------------------------------------*
    2690                            .dwpsn  file "/vagrant/2022_Q1_14_2_22/sdk_root/source/ti/drivers/net/wifi/slnetif/slwificonn.
    2691                    ;----------------------------------------------------------------------
    2692                    ; 542 | g_ctx->enabledPolicy = (policy | SL_WLAN_CONNECTION_POLICY(1,0,0,0)) &
    2693                    ;     | ~(SL_WLAN_CONNECTION_POLICY(0,0,0,1));                                 
    2694                    ;----------------------------------------------------------------------
    2695 00000022 490A              LDR       A2, $C$CON12          ; [DPU_V7M3_PIPE] |542|  ; [ORIG 16-BIT INS]
TI ARM Assembler Unix v20.2.5 Sun Mar 27 17:11:53 2022

Copyright (c) 1996-2018 Texas Instruments Incorporated
slwificonn.asm                                                       PAGE   50

    2696 00000024 0004F89D          LDRB      A1, [SP, #4]          ; [DPU_V7M3_PIPE] |542|  ; [KEEP 32-BIT INS]
    2697 00000028 6809              LDR       A2, [A2, #0]          ; [DPU_V7M3_PIPE] |542|  ; [ORIG 16-BIT INS]
    2698 0000002a 0001F040          ORR       A1, A1, #1            ; [DPU_V7M3_PIPE] |542|  ; [KEEP 32-BIT INS]
    2699 0000002e 0020F020          BIC       A1, A1, #32           ; [DPU_V7M3_PIPE] |542|  ; [KEEP 32-BIT INS]
    2700 00000032 0076F881          STRB      A1, [A2, #118]        ; [DPU_V7M3_PIPE] |542|  ; [KEEP 32-BIT INS]
    2701                            .dwpsn  file "/vagrant/2022_Q1_14_2_22/sdk_root/source/ti/drivers/net/wifi/slnetif/slwificonn.
    2702                    ;----------------------------------------------------------------------
    2703                    ; 545 | g_ctx->disabledPolicy = policy & ~(SL_WLAN_CONNECTION_POLICY(1,1,0,1));
    2704                    ;----------------------------------------------------------------------
    2705 00000036 4905              LDR       A2, $C$CON12          ; [DPU_V7M3_PIPE] |545|  ; [ORIG 16-BIT INS]
    2706 00000038 0004F89D          LDRB      A1, [SP, #4]          ; [DPU_V7M3_PIPE] |545|  ; [KEEP 32-BIT INS]
    2707 0000003c 6809              LDR       A2, [A2, #0]          ; [DPU_V7M3_PIPE] |545|  ; [ORIG 16-BIT INS]
    2708 0000003e 0023F020          BIC       A1, A1, #35           ; [DPU_V7M3_PIPE] |545|  ; [KEEP 32-BIT INS]
    2709 00000042 0075F881          STRB      A1, [A2, #117]        ; [DPU_V7M3_PIPE] |545|  ; [KEEP 32-BIT INS]
    2710                    ;* --------------------------------------------------------------------------*
    2711 00000046           ||$C$L33||:    
    2712                            .dwpsn  file "/vagrant/2022_Q1_14_2_22/sdk_root/source/ti/drivers/net/wifi/slnetif/slwificonn.
    2713                    ;----------------------------------------------------------------------
    2714                    ; 547 | return retVal;                                                         
    2715                    ;----------------------------------------------------------------------
    2716 00000046 9800              LDR       A1, [SP, #0]          ; [DPU_V7M3_PIPE] |547|  ; [ORIG 16-BIT INS]
    2717                            .dwpsn  file "/vagrant/2022_Q1_14_2_22/sdk_root/source/ti/drivers/net/wifi/slnetif/slwificonn.
    2718                    $C$DW$224       .dwtag  DW_TAG_TI_branch
    2719                            .dwattr $C$DW$224, DW_AT_low_pc(0x00)
    2720                            .dwattr $C$DW$224, DW_AT_TI_return
    2721                    
    2722 00000048 BD0E              POP       {A2, A3, A4, PC}      ; [DPU_V7M3_PIPE]  ; [ORIG 16-BIT INS]
    2723                            .dwcfi  cfa_offset, 0
    2724                            .dwcfi  restore_reg, 3
    2725                            .dwcfi  restore_reg, 2
    2726                            .dwcfi  restore_reg, 1
    2727                            ; BRANCH OCCURS                  ; [] 
    2728                            .dwattr $C$DW$219, DW_AT_TI_end_file("/vagrant/2022_Q1_14_2_22/sdk_root/source/ti/drivers/net/
    2729                            .dwattr $C$DW$219, DW_AT_TI_end_line(0x224)
    2730                            .dwattr $C$DW$219, DW_AT_TI_end_column(0x01)
    2731                            .dwendentry
    2732                            .dwendtag $C$DW$219
    2733                    
    2734 00000000                   .sect   ".text:SuspendNWP"
    2735                            .clink
    2736                            .thumbfunc SuspendNWP
    2737 00000000                   .thumb
    2738                    
    2739                    $C$DW$225       .dwtag  DW_TAG_subprogram
    2740                            .dwattr $C$DW$225, DW_AT_name("SuspendNWP")
    2741                            .dwattr $C$DW$225, DW_AT_low_pc(SuspendNWP)
    2742                            .dwattr $C$DW$225, DW_AT_high_pc(0x00)
    2743                            .dwattr $C$DW$225, DW_AT_TI_symbol_name("SuspendNWP")
    2744                            .dwattr $C$DW$225, DW_AT_type(*$C$DW$T$10)
    2745                            .dwattr $C$DW$225, DW_AT_TI_begin_file("/vagrant/2022_Q1_14_2_22/sdk_root/source/ti/drivers/ne
    2746                            .dwattr $C$DW$225, DW_AT_TI_begin_line(0x22c)
    2747                            .dwattr $C$DW$225, DW_AT_TI_begin_column(0x0c)
    2748                            .dwattr $C$DW$225, DW_AT_decl_file("/vagrant/2022_Q1_14_2_22/sdk_root/source/ti/drivers/net/wi
    2749                            .dwattr $C$DW$225, DW_AT_decl_line(0x22c)
    2750                            .dwattr $C$DW$225, DW_AT_decl_column(0x0c)
TI ARM Assembler Unix v20.2.5 Sun Mar 27 17:11:53 2022

Copyright (c) 1996-2018 Texas Instruments Incorporated
slwificonn.asm                                                       PAGE   51

    2751                            .dwattr $C$DW$225, DW_AT_TI_max_frame_size(0x10)
    2752                            .dwpsn  file "/vagrant/2022_Q1_14_2_22/sdk_root/source/ti/drivers/net/wifi/slnetif/slwificonn.
    2753                    
    2754                            .dwfde $C$DW$CIE, SuspendNWP
    2755                    $C$DW$226       .dwtag  DW_TAG_formal_parameter
    2756                            .dwattr $C$DW$226, DW_AT_name("bNotify")
    2757                            .dwattr $C$DW$226, DW_AT_TI_symbol_name("bNotify")
    2758                            .dwattr $C$DW$226, DW_AT_type(*$C$DW$T$10)
    2759                            .dwattr $C$DW$226, DW_AT_location[DW_OP_reg0]
    2760                    
    2761                    ;----------------------------------------------------------------------
    2762                    ; 556 | static int SuspendNWP(bool bNotify)                                    
    2763                    ;----------------------------------------------------------------------
    2764                    
    2765                    ;*****************************************************************************
    2766                    ;* FUNCTION NAME: SuspendNWP                                                 *
    2767                    ;*                                                                           *
    2768                    ;*   Regs Modified     : A1,A2,A3,A4,V9,SP,LR,SR                             *
    2769                    ;*   Regs Used         : A1,A2,A3,A4,V9,SP,LR,SR                             *
    2770                    ;*   Local Frame Size  : 0 Args + 12 Auto + 4 Save = 16 byte                 *
    2771                    ;*****************************************************************************
    2772 00000000           SuspendNWP:
    2773                    ;* --------------------------------------------------------------------------*
    2774                            .dwcfi  cfa_offset, 0
    2775 00000000 B50E              PUSH      {A2, A3, A4, LR}      ; [DPU_V7M3_PIPE]  ; [ORIG 16-BIT INS]
    2776                            .dwcfi  cfa_offset, 16
    2777                            .dwcfi  save_reg_to_mem, 14, -4
    2778                            .dwcfi  save_reg_to_mem, 3, -8
    2779                            .dwcfi  save_reg_to_mem, 2, -12
    2780                            .dwcfi  save_reg_to_mem, 1, -16
    2781                    $C$DW$227       .dwtag  DW_TAG_variable
    2782                            .dwattr $C$DW$227, DW_AT_name("retVal")
    2783                            .dwattr $C$DW$227, DW_AT_TI_symbol_name("retVal")
    2784                            .dwattr $C$DW$227, DW_AT_type(*$C$DW$T$10)
    2785                            .dwattr $C$DW$227, DW_AT_location[DW_OP_breg13 0]
    2786                    
    2787                    $C$DW$228       .dwtag  DW_TAG_variable
    2788                            .dwattr $C$DW$228, DW_AT_name("flags")
    2789                            .dwattr $C$DW$228, DW_AT_TI_symbol_name("flags")
    2790                            .dwattr $C$DW$228, DW_AT_type(*$C$DW$T$112)
    2791                            .dwattr $C$DW$228, DW_AT_location[DW_OP_breg13 4]
    2792                    
    2793                    $C$DW$229       .dwtag  DW_TAG_variable
    2794                            .dwattr $C$DW$229, DW_AT_name("bNotify")
    2795                            .dwattr $C$DW$229, DW_AT_TI_symbol_name("bNotify")
    2796                            .dwattr $C$DW$229, DW_AT_type(*$C$DW$T$94)
    2797                            .dwattr $C$DW$229, DW_AT_location[DW_OP_breg13 8]
    2798                    
    2799                    ;----------------------------------------------------------------------
    2800                    ; 558 | int retVal;                                                            
    2801                    ;----------------------------------------------------------------------
    2802 00000002 0008F88D          STRB      A1, [SP, #8]          ; [DPU_V7M3_PIPE] |557|  ; [KEEP 32-BIT INS]
    2803                            .dwpsn  file "/vagrant/2022_Q1_14_2_22/sdk_root/source/ti/drivers/net/wifi/slnetif/slwificonn.
    2804                    ;----------------------------------------------------------------------
    2805                    ; 559 | uint32_t flags = NON_PERSISTANT_FLAG;                                  
TI ARM Assembler Unix v20.2.5 Sun Mar 27 17:11:53 2022

Copyright (c) 1996-2018 Texas Instruments Incorporated
slwificonn.asm                                                       PAGE   52

    2806                    ;----------------------------------------------------------------------
    2807 00000006 2001              MOVS      A1, #1                ; [DPU_V7M3_PIPE] |559|  ; [ORIG 16-BIT INS]
    2808 00000008 9001              STR       A1, [SP, #4]          ; [DPU_V7M3_PIPE] |559|  ; [ORIG 16-BIT INS]
    2809                            .dwpsn  file "/vagrant/2022_Q1_14_2_22/sdk_root/source/ti/drivers/net/wifi/slnetif/slwificonn.
    2810                    ;----------------------------------------------------------------------
    2811                    ; 560 | retVal = sl_WlanPolicySet(SL_WLAN_POLICY_CONNECTION, g_ctx->disabledPol
    2812                    ;     | icy, (uint8_t*)&flags, sizeof(uint32_t));                              
    2813                    ;----------------------------------------------------------------------
    2814 0000000a 480A              LDR       A1, $C$CON13          ; [DPU_V7M3_PIPE] |560|  ; [ORIG 16-BIT INS]
    2815 0000000c 6800              LDR       A1, [A1, #0]          ; [DPU_V7M3_PIPE] |560|  ; [ORIG 16-BIT INS]
    2816 0000000e 1075F890          LDRB      A2, [A1, #117]        ; [DPU_V7M3_PIPE] |560|  ; [KEEP 32-BIT INS]
    2817 00000012 2304              MOVS      A4, #4                ; [DPU_V7M3_PIPE] |560|  ; [ORIG 16-BIT INS]
    2818 00000014 AA01              ADD       A3, SP, #4            ; [DPU_V7M3_PIPE] |560|  ; [ORIG 16-BIT INS]
    2819 00000016 2010              MOVS      A1, #16               ; [DPU_V7M3_PIPE] |560|  ; [ORIG 16-BIT INS]
    2820                    $C$DW$230       .dwtag  DW_TAG_TI_branch
    2821                            .dwattr $C$DW$230, DW_AT_low_pc(0x00)
    2822                            .dwattr $C$DW$230, DW_AT_name("sl_WlanPolicySet")
    2823                            .dwattr $C$DW$230, DW_AT_TI_call
    2824                    
    2825 00000018 FFFEF7FF!         BL        sl_WlanPolicySet      ; [DPU_V7M3_PIPE] |560|  ; [KEEP 32-BIT INS]
    2826                            ; CALL OCCURS {sl_WlanPolicySet }  ; [] |560| 
    2827 0000001c 9000              STR       A1, [SP, #0]          ; [DPU_V7M3_PIPE] |560|  ; [ORIG 16-BIT INS]
    2828                            .dwpsn  file "/vagrant/2022_Q1_14_2_22/sdk_root/source/ti/drivers/net/wifi/slnetif/slwificonn.
    2829                    ;----------------------------------------------------------------------
    2830                    ; 561 | if(retVal == 0 && bNotify)                                             
    2831                    ;----------------------------------------------------------------------
    2832 0000001e 9800              LDR       A1, [SP, #0]          ; [DPU_V7M3_PIPE] |561|  ; [ORIG 16-BIT INS]
    2833 00000020 B930              CBNZ      A1, ||$C$L34||        ; []  ; [ORIG 16-BIT INS]
    2834                            ; BRANCHCC OCCURS {||$C$L34||}   ; [] |561| 
    2835                    ;* --------------------------------------------------------------------------*
    2836 00000022 0008F89D          LDRB      A1, [SP, #8]          ; [DPU_V7M3_PIPE] |561|  ; [KEEP 32-BIT INS]
    2837 00000026 B118              CBZ       A1, ||$C$L34||        ; []  ; [ORIG 16-BIT INS]
    2838                            ; BRANCHCC OCCURS {||$C$L34||}   ; [] |561| 
    2839                    ;* --------------------------------------------------------------------------*
    2840                            .dwpsn  file "/vagrant/2022_Q1_14_2_22/sdk_root/source/ti/drivers/net/wifi/slnetif/slwificonn.
    2841                    ;----------------------------------------------------------------------
    2842                    ; 563 | NotifyWifiApp(WifiConnEvent_POWERED_DOWN, 0);                          
    2843                    ;----------------------------------------------------------------------
    2844 00000028 2001              MOVS      A1, #1                ; [DPU_V7M3_PIPE] |563|  ; [ORIG 16-BIT INS]
    2845 0000002a 2100              MOVS      A2, #0                ; [DPU_V7M3_PIPE] |563|  ; [ORIG 16-BIT INS]
    2846                    $C$DW$231       .dwtag  DW_TAG_TI_branch
    2847                            .dwattr $C$DW$231, DW_AT_low_pc(0x00)
    2848                            .dwattr $C$DW$231, DW_AT_name("NotifyWifiApp")
    2849                            .dwattr $C$DW$231, DW_AT_TI_call
    2850                    
    2851 0000002c FFFEF7FF!         BL        NotifyWifiApp         ; [DPU_V7M3_PIPE] |563|  ; [KEEP 32-BIT INS]
    2852                            ; CALL OCCURS {NotifyWifiApp }   ; [] |563| 
    2853                    ;* --------------------------------------------------------------------------*
    2854 00000030           ||$C$L34||:    
    2855                            .dwpsn  file "/vagrant/2022_Q1_14_2_22/sdk_root/source/ti/drivers/net/wifi/slnetif/slwificonn.
    2856                    ;----------------------------------------------------------------------
    2857                    ; 565 | return retVal;                                                         
    2858                    ;----------------------------------------------------------------------
    2859 00000030 9800              LDR       A1, [SP, #0]          ; [DPU_V7M3_PIPE] |565|  ; [ORIG 16-BIT INS]
    2860                            .dwpsn  file "/vagrant/2022_Q1_14_2_22/sdk_root/source/ti/drivers/net/wifi/slnetif/slwificonn.
TI ARM Assembler Unix v20.2.5 Sun Mar 27 17:11:53 2022

Copyright (c) 1996-2018 Texas Instruments Incorporated
slwificonn.asm                                                       PAGE   53

    2861                    $C$DW$232       .dwtag  DW_TAG_TI_branch
    2862                            .dwattr $C$DW$232, DW_AT_low_pc(0x00)
    2863                            .dwattr $C$DW$232, DW_AT_TI_return
    2864                    
    2865 00000032 BD0E              POP       {A2, A3, A4, PC}      ; [DPU_V7M3_PIPE]  ; [ORIG 16-BIT INS]
    2866                            .dwcfi  cfa_offset, 0
    2867                            .dwcfi  restore_reg, 3
    2868                            .dwcfi  restore_reg, 2
    2869                            .dwcfi  restore_reg, 1
    2870                            ; BRANCH OCCURS                  ; [] 
    2871                            .dwattr $C$DW$225, DW_AT_TI_end_file("/vagrant/2022_Q1_14_2_22/sdk_root/source/ti/drivers/net/
    2872                            .dwattr $C$DW$225, DW_AT_TI_end_line(0x236)
    2873                            .dwattr $C$DW$225, DW_AT_TI_end_column(0x01)
    2874                            .dwendentry
    2875                            .dwendtag $C$DW$225
    2876                    
    2877 00000000                   .sect   ".text:ResumeNWP"
    2878                            .clink
    2879                            .thumbfunc ResumeNWP
    2880 00000000                   .thumb
    2881                    
    2882                    $C$DW$233       .dwtag  DW_TAG_subprogram
    2883                            .dwattr $C$DW$233, DW_AT_name("ResumeNWP")
    2884                            .dwattr $C$DW$233, DW_AT_low_pc(ResumeNWP)
    2885                            .dwattr $C$DW$233, DW_AT_high_pc(0x00)
    2886                            .dwattr $C$DW$233, DW_AT_TI_symbol_name("ResumeNWP")
    2887                            .dwattr $C$DW$233, DW_AT_type(*$C$DW$T$10)
    2888                            .dwattr $C$DW$233, DW_AT_TI_begin_file("/vagrant/2022_Q1_14_2_22/sdk_root/source/ti/drivers/ne
    2889                            .dwattr $C$DW$233, DW_AT_TI_begin_line(0x23e)
    2890                            .dwattr $C$DW$233, DW_AT_TI_begin_column(0x0c)
    2891                            .dwattr $C$DW$233, DW_AT_decl_file("/vagrant/2022_Q1_14_2_22/sdk_root/source/ti/drivers/net/wi
    2892                            .dwattr $C$DW$233, DW_AT_decl_line(0x23e)
    2893                            .dwattr $C$DW$233, DW_AT_decl_column(0x0c)
    2894                            .dwattr $C$DW$233, DW_AT_TI_max_frame_size(0x10)
    2895                            .dwpsn  file "/vagrant/2022_Q1_14_2_22/sdk_root/source/ti/drivers/net/wifi/slnetif/slwificonn.
    2896                    
    2897                            .dwfde $C$DW$CIE, ResumeNWP
    2898                    $C$DW$234       .dwtag  DW_TAG_formal_parameter
    2899                            .dwattr $C$DW$234, DW_AT_name("bNotify")
    2900                            .dwattr $C$DW$234, DW_AT_TI_symbol_name("bNotify")
    2901                            .dwattr $C$DW$234, DW_AT_type(*$C$DW$T$10)
    2902                            .dwattr $C$DW$234, DW_AT_location[DW_OP_reg0]
    2903                    
